libhpp-util.so.0.4c libhpp-util0.4c #MINVER#
 _ZGVN5boost9date_time10time_facetINS_10posix_time5ptimeEcSt19ostreambuf_iteratorIcSt11char_traitsIcEEE2idE@Base 0.4c
 _ZGVZN3hpp6indentERSoE12indent_index@Base 0.4c
 _ZGVZN5boost10filesystem12initial_pathINS0_10basic_pathISbIwSt11char_traitsIwESaIwEENS0_12wpath_traitsEEEEERKT_vE9init_path@Base 0.4c
 _ZGVZN5boost10filesystem12initial_pathINS0_10basic_pathISsNS0_11path_traitsEEEEERKT_vE9init_path@Base 0.4c
 _ZGVZN5boost10filesystem6detail14remove_all_auxINS0_10basic_pathISbIwSt11char_traitsIwESaIwEENS0_12wpath_traitsEEEEEmRKT_NS0_11file_statusEE7end_itr@Base 0.4c
 _ZGVZN5boost10filesystem6detail14remove_all_auxINS0_10basic_pathISsNS0_11path_traitsEEEEEmRKT_NS0_11file_statusEE7end_itr@Base 0.4c
 _ZGVZNK5boost6system14error_category7messageEiE1s@Base 0.4c
 _ZN3hpp11resetindentERSo@Base 0.4c
 _ZN3hpp4util12checkVersionEPKc@Base 0.4c
 _ZN3hpp4util7versionE@Base 0.4c
 _ZN3hpp5debug11getFilenameERKSsS2_@Base 0.4c
 _ZN3hpp5debug13ConsoleOutput5writeERKNS0_7ChannelEPKciS6_RKSs@Base 0.4c
 _ZN3hpp5debug13ConsoleOutputC1Ev@Base 0.4c
 _ZN3hpp5debug13ConsoleOutputC2Ev@Base 0.4c
 _ZN3hpp5debug13ConsoleOutputD1Ev@Base 0.4c
 _ZN3hpp5debug13ConsoleOutputD2Ev@Base 0.4c
 _ZN3hpp5debug13JournalOutput5writeERKNS0_7ChannelEPKciS6_RKSs@Base 0.4c
 _ZN3hpp5debug13JournalOutputC1ESs@Base 0.4c
 _ZN3hpp5debug13JournalOutputC2ESs@Base 0.4c
 _ZN3hpp5debug13JournalOutputD1Ev@Base 0.4c
 _ZN3hpp5debug13JournalOutputD2Ev@Base 0.4c
 _ZN3hpp5debug5Timer4stopEv@Base 0.4c
 _ZN3hpp5debug5Timer5startEv@Base 0.4c
 _ZN3hpp5debug5TimerC1ERKS1_@Base 0.4c
 _ZN3hpp5debug5TimerC1Eb@Base 0.4c
 _ZN3hpp5debug5TimerC2ERKS1_@Base 0.4c
 _ZN3hpp5debug5TimerC2Eb@Base 0.4c
 _ZN3hpp5debug5TimerD1Ev@Base 0.4c
 _ZN3hpp5debug5TimerD2Ev@Base 0.4c
 _ZN3hpp5debug5TimeraSERKS1_@Base 0.4c
 _ZN3hpp5debug6Output11writePrefixERSoRKNS0_7ChannelEPKciS7_@Base 0.4c
 _ZN3hpp5debug6OutputC1Ev@Base 0.4c
 _ZN3hpp5debug6OutputC2Ev@Base 0.4c
 _ZN3hpp5debug6OutputD1Ev@Base 0.4c
 _ZN3hpp5debug6OutputD2Ev@Base 0.4c
 _ZN3hpp5debug7Channel5writeEPKciS3_RKSs@Base 0.4c
 _ZN3hpp5debug7ChannelC1EPKcRKSt6vectorIPNS0_6OutputESaIS6_EE@Base 0.4c
 _ZN3hpp5debug7ChannelC2EPKcRKSt6vectorIPNS0_6OutputESaIS6_EE@Base 0.4c
 _ZN3hpp5debug7ChannelD1Ev@Base 0.4c
 _ZN3hpp5debug7ChannelD2Ev@Base 0.4c
 _ZN3hpp5debug7LoggingC1Ev@Base 0.4c
 _ZN3hpp5debug7LoggingC2Ev@Base 0.4c
 _ZN3hpp5debug7LoggingD1Ev@Base 0.4c
 _ZN3hpp5debug7LoggingD2Ev@Base 0.4c
 _ZN3hpp5debug7loggingE@Base 0.4c
 _ZN3hpp5debug9getPrefixERKSs@Base 0.4c
 _ZN3hpp5iendlERSo@Base 0.4c
 _ZN3hpp6indentERSo@Base 0.4c
 _ZN3hpp7decendlERSo@Base 0.4c
 _ZN3hpp7incendlERSo@Base 0.4c
 _ZN3hpp9ExceptionC1ERKS0_@Base 0.4c
 _ZN3hpp9ExceptionC1ERKSsS2_j@Base 0.4c
 _ZN3hpp9ExceptionC2ERKS0_@Base 0.4c
 _ZN3hpp9ExceptionC2ERKSsS2_j@Base 0.4c
 _ZN3hpp9ExceptionD0Ev@Base 0.4c
 _ZN3hpp9ExceptionD1Ev@Base 0.4c
 _ZN3hpp9ExceptionD2Ev@Base 0.4c
 _ZN3hpp9ExceptionaSERKS0_@Base 0.4c
 _ZN3hpp9decindentERSo@Base 0.4c
 _ZN3hpp9incindentERSo@Base 0.4c
 _ZN3hpplsERSoRKNS_9ExceptionE@Base 0.4c
 _ZN5boost10as_literalIPKcEENS_14iterator_rangeINS_14range_iteratorIKT_E4typeEEERS6_@Base 0.4c
 _ZN5boost10as_literalIPKcEENS_14iterator_rangeINS_14range_iteratorIT_E4typeEEERS5_@Base 0.4c
 _ZN5boost10as_literalISsEENS_14iterator_rangeINS_14range_iteratorIKT_E4typeEEERS4_@Base 0.4c
 _ZN5boost10as_literalIcLj2EEENS_14iterator_rangeIPKT_EERAT0__S3_@Base 0.4c
 _ZN5boost10as_literalIcLj3EEENS_14iterator_rangeIPKT_EERAT0__S3_@Base 0.4c
 _ZN5boost10copy_rangeISsNS_14iterator_rangeIPKcEEEET_RKT0_@Base 0.4c
 _ZN5boost10dividable2INS_9date_time13date_durationINS1_23duration_traits_adaptedEEEiNS_6detail10empty_baseIS4_EEEC2Ev@Base 0.4c
 _ZN5boost10filesystem10basic_pathISsNS0_11path_traitsEE28m_append_separator_if_neededEv@Base 0.4c
 _ZN5boost10filesystem10basic_pathISsNS0_11path_traitsEE8m_appendEc@Base 0.4c
 _ZN5boost10filesystem10basic_pathISsNS0_11path_traitsEEC1ERKSs@Base 0.4c
 _ZN5boost10filesystem10basic_pathISsNS0_11path_traitsEEC1Ev@Base 0.4c
 _ZN5boost10filesystem10basic_pathISsNS0_11path_traitsEED1Ev@Base 0.4c
 _ZN5boost10filesystem10basic_pathISsNS0_11path_traitsEEaSERKS3_@Base 0.4c
 _ZN5boost10filesystem10basic_pathISsNS0_11path_traitsEEdVEPKc@Base 0.4c
 _ZN5boost10filesystem10basic_pathISsNS0_11path_traitsEEdVERKSs@Base 0.4c
 _ZN5boost10filesystem11path_traits11to_externalERKNS0_10basic_pathISsS1_EERKSs@Base 0.4c
 _ZN5boost10filesystem12is_directoryENS0_11file_statusE@Base 0.4c
 _ZN5boost10filesystem12is_directoryERKNS0_10basic_pathISsNS0_11path_traitsEEE@Base 0.4c
 _ZN5boost10filesystem12is_directoryINS0_10basic_pathISsNS0_11path_traitsEEEEENS_9enable_ifINS0_13is_basic_pathIT_EEbE4typeERKS7_@Base 0.4c
 _ZN5boost10filesystem16create_directoryERKNS0_10basic_pathISsNS0_11path_traitsEEE@Base 0.4c
 _ZN5boost10filesystem16create_directoryINS0_10basic_pathISsNS0_11path_traitsEEEEENS_9enable_ifINS0_13is_basic_pathIT_EEbE4typeERKS7_@Base 0.4c
 _ZN5boost10filesystem18create_directoriesERKNS0_10basic_pathISsNS0_11path_traitsEEE@Base 0.4c
 _ZN5boost10filesystem18create_directoriesINS0_10basic_pathISsNS0_11path_traitsEEEEENS_9enable_ifINS0_13is_basic_pathIT_EEbE4typeERKS7_@Base 0.4c
 _ZN5boost10filesystem22basic_filesystem_errorINS0_10basic_pathISsNS0_11path_traitsEEEE5m_impC1Ev@Base 0.4c
 _ZN5boost10filesystem22basic_filesystem_errorINS0_10basic_pathISsNS0_11path_traitsEEEE5m_impD1Ev@Base 0.4c
 _ZN5boost10filesystem22basic_filesystem_errorINS0_10basic_pathISsNS0_11path_traitsEEEEC1ERKSsRKS4_NS_6system10error_codeE@Base 0.4c
 _ZN5boost10filesystem22basic_filesystem_errorINS0_10basic_pathISsNS0_11path_traitsEEEEC2ERKS5_@Base 0.4c
 _ZN5boost10filesystem22basic_filesystem_errorINS0_10basic_pathISsNS0_11path_traitsEEEED0Ev@Base 0.4c
 _ZN5boost10filesystem22basic_filesystem_errorINS0_10basic_pathISsNS0_11path_traitsEEEED1Ev@Base 0.4c
 _ZN5boost10filesystem22basic_filesystem_errorINS0_10basic_pathISsNS0_11path_traitsEEEED2Ev@Base 0.4c
 _ZN5boost10filesystem6detail12filename_posISsNS0_11path_traitsEEENT_9size_typeERKS4_S5_@Base 0.4c
 _ZN5boost10filesystem6detail12is_separatorINS0_10basic_pathISsNS0_11path_traitsEEEEEbNT_11string_type10value_typeE@Base 0.4c
 _ZN5boost10filesystem6detail20root_directory_startISsNS0_11path_traitsEEENT_9size_typeERKS4_S5_@Base 0.4c
 _ZN5boost10filesystem6detail4whatEPKcRKNS0_10basic_pathISsNS0_11path_traitsEEES8_RSs@Base 0.4c
 _ZN5boost10filesystem6existsENS0_11file_statusE@Base 0.4c
 _ZN5boost10filesystem6existsERKNS0_10basic_pathISsNS0_11path_traitsEEE@Base 0.4c
 _ZN5boost10filesystem6existsINS0_10basic_pathISsNS0_11path_traitsEEEEENS_9enable_ifINS0_13is_basic_pathIT_EEbE4typeERKS7_@Base 0.4c
 _ZN5boost10posix_time13time_durationC1ENS_9date_time14special_valuesE@Base 0.4c
 _ZN5boost10posix_time13time_durationC1ERKS1_@Base 0.4c
 _ZN5boost10posix_time13time_durationC1Eiiix@Base 0.4c
 _ZN5boost10posix_time5ptimeC1ENS_9gregorian4dateENS0_13time_durationE@Base 0.4c
 _ZN5boost10posix_time5ptimeC1ERKNS_9date_time16counted_time_repINS0_33millisec_posix_time_system_configEEE@Base 0.4c
 _ZN5boost10posix_time5ptimeC1Ev@Base 0.4c
 _ZN5boost10posix_time5to_tmERKNS0_13time_durationE@Base 0.4c
 _ZN5boost10posix_time5to_tmERKNS0_5ptimeE@Base 0.4c
 _ZN5boost10posix_timelsIcSt11char_traitsIcEEERSt13basic_ostreamIT_T0_ES8_RKNS0_13time_durationE@Base 0.4c
 _ZN5boost10posix_timelsIcSt11char_traitsIcEEERSt13basic_ostreamIT_T0_ES8_RKNS0_5ptimeE@Base 0.4c
 _ZN5boost10shared_ptrINS_10filesystem22basic_filesystem_errorINS1_10basic_pathISsNS1_11path_traitsEEEE5m_impEE4swapERS8_@Base 0.4c
 _ZN5boost10shared_ptrINS_10filesystem22basic_filesystem_errorINS1_10basic_pathISsNS1_11path_traitsEEEE5m_impEE5resetEv@Base 0.4c
 _ZN5boost10shared_ptrINS_10filesystem22basic_filesystem_errorINS1_10basic_pathISsNS1_11path_traitsEEEE5m_impEE5resetIS7_EEvPT_@Base 0.4c
 _ZN5boost10shared_ptrINS_10filesystem22basic_filesystem_errorINS1_10basic_pathISsNS1_11path_traitsEEEE5m_impEEC1ERKS8_@Base 0.4c
 _ZN5boost10shared_ptrINS_10filesystem22basic_filesystem_errorINS1_10basic_pathISsNS1_11path_traitsEEEE5m_impEEC1Ev@Base 0.4c
 _ZN5boost10shared_ptrINS_10filesystem22basic_filesystem_errorINS1_10basic_pathISsNS1_11path_traitsEEEE5m_impEEC1IS7_EEPT_@Base 0.4c
 _ZN5boost10shared_ptrINS_10filesystem22basic_filesystem_errorINS1_10basic_pathISsNS1_11path_traitsEEEE5m_impEED1Ev@Base 0.4c
 _ZN5boost10shared_ptrINS_2io18basic_altstringbufIcSt11char_traitsIcESaIcEEEEC1IS6_NS1_22basic_oaltstringstreamIcS4_S5_E5No_OpEEEPT_T0_@Base 0.4c
 _ZN5boost10shared_ptrINS_2io18basic_altstringbufIcSt11char_traitsIcESaIcEEEED1Ev@Base 0.4c
 _ZN5boost11get_pointerISt6localeEENS_8optionalIT_E12pointer_typeERS4_@Base 0.4c
 _ZN5boost12basic_formatIcSt11char_traitsIcESaIcEE18make_or_reuse_dataEj@Base 0.4c
 _ZN5boost12basic_formatIcSt11char_traitsIcESaIcEE5clearEv@Base 0.4c
 _ZN5boost12basic_formatIcSt11char_traitsIcESaIcEE5parseERKSs@Base 0.4c
 _ZN5boost12basic_formatIcSt11char_traitsIcESaIcEEC1EPKc@Base 0.4c
 _ZN5boost12basic_formatIcSt11char_traitsIcESaIcEED1Ev@Base 0.4c
 _ZN5boost12basic_formatIcSt11char_traitsIcESaIcEErmINS_10posix_time13time_durationEEERS4_RKT_@Base 0.4c
 _ZN5boost12basic_formatIcSt11char_traitsIcESaIcEErmINS_10posix_time5ptimeEEERS4_RKT_@Base 0.4c
 _ZN5boost12basic_formatIcSt11char_traitsIcESaIcEErmISsEERS4_RKT_@Base 0.4c
 _ZN5boost12basic_formatIcSt11char_traitsIcESaIcEErmIiEERS4_RKT_@Base 0.4c
 _ZN5boost12basic_formatIcSt11char_traitsIcESaIcEErmIjEERS4_RKT_@Base 0.4c
 _ZN5boost12range_detail10make_rangeIKSsEENS_14iterator_rangeINS_14range_iteratorIT_E4typeEEERS5_l@Base 0.4c
 _ZN5boost12range_detail10make_rangeIKcEENS_14iterator_rangeIPT_EES5_b@Base 0.4c
 _ZN5boost12range_detail11is_char_ptrEPKc@Base 0.4c
 _ZN5boost12range_detail11is_char_ptrISsEElT_@Base 0.4c
 _ZN5boost12range_detail11range_beginIKNS_14iterator_rangeIN9__gnu_cxx17__normal_iteratorIPKcSsEEEEEENS_14range_iteratorIT_E4typeERSB_@Base 0.4c
 _ZN5boost12range_detail11range_beginIKNS_14iterator_rangeIPKcEEEENS_14range_iteratorIT_E4typeERS8_@Base 0.4c
 _ZN5boost12range_detail11range_beginIKNS_9algorithm6detail15empty_containerIcEEEENS_14range_iteratorIT_E4typeERS8_@Base 0.4c
 _ZN5boost12range_detail11range_beginIKSsEENS_14range_iteratorIT_E4typeERS4_@Base 0.4c
 _ZN5boost12range_detail11range_beginINS_14iterator_rangeIN9__gnu_cxx17__normal_iteratorIPcSsEEEEEENS_14range_iteratorIT_E4typeERS9_@Base 0.4c
 _ZN5boost12range_detail11range_beginINS_14iterator_rangeIPKcEEEENS_14range_iteratorIT_E4typeERS7_@Base 0.4c
 _ZN5boost12range_detail11range_beginISsEENS_14range_iteratorIT_E4typeERS3_@Base 0.4c
 _ZN5boost12range_detail11range_beginISt6vectorIPN3hpp5debug6OutputESaIS6_EEEENS_14range_iteratorIT_E4typeERSA_@Base 0.4c
 _ZN5boost12range_detail6lengthEPKc@Base 0.4c
 _ZN5boost12range_detail9range_endIKNS_14iterator_rangeIN9__gnu_cxx17__normal_iteratorIPKcSsEEEEEENS_14range_iteratorIT_E4typeERSB_@Base 0.4c
 _ZN5boost12range_detail9range_endIKNS_14iterator_rangeIPKcEEEENS_14range_iteratorIT_E4typeERS8_@Base 0.4c
 _ZN5boost12range_detail9range_endIKNS_9algorithm6detail15empty_containerIcEEEENS_14range_iteratorIT_E4typeERS8_@Base 0.4c
 _ZN5boost12range_detail9range_endIKSsEENS_14range_iteratorIT_E4typeERS4_@Base 0.4c
 _ZN5boost12range_detail9range_endINS_14iterator_rangeIN9__gnu_cxx17__normal_iteratorIPcSsEEEEEENS_14range_iteratorIT_E4typeERS9_@Base 0.4c
 _ZN5boost12range_detail9range_endINS_14iterator_rangeIPKcEEEENS_14range_iteratorIT_E4typeERS7_@Base 0.4c
 _ZN5boost12range_detail9range_endISsEENS_14range_iteratorIT_E4typeERS3_@Base 0.4c
 _ZN5boost12range_detail9range_endISt6vectorIPN3hpp5debug6OutputESaIS6_EEEENS_14range_iteratorIT_E4typeERSA_@Base 0.4c
 _ZN5boost13assign_detail12generic_listIPN3hpp5debug6OutputEE9push_backES5_@Base 0.4c
 _ZN5boost13assign_detail12generic_listIPN3hpp5debug6OutputEEC1ERKS6_@Base 0.4c
 _ZN5boost13assign_detail12generic_listIPN3hpp5debug6OutputEEC1Ev@Base 0.4c
 _ZN5boost13assign_detail12generic_listIPN3hpp5debug6OutputEED1Ev@Base 0.4c
 _ZN5boost13assign_detail12generic_listIPN3hpp5debug6OutputEEclERKS5_@Base 0.4c
 _ZN5boost13assign_detail9converterINS0_12generic_listIPN3hpp5debug6OutputEEESt15_Deque_iteratorIS6_RS6_PS6_EEC2Ev@Base 0.4c
 _ZN5boost13function_baseC2Ev@Base 0.4c
 _ZN5boost13subtractable1INS_9date_time13date_durationINS1_23duration_traits_adaptedEEENS_10dividable2IS4_iNS_6detail10empty_baseIS4_EEEEEC2Ev@Base 0.4c
 _ZN5boost14checked_deleteINS_10filesystem22basic_filesystem_errorINS1_10basic_pathISsNS1_11path_traitsEEEE5m_impEEEvPT_@Base 0.4c
 _ZN5boost14iterator_rangeIN9__gnu_cxx17__normal_iteratorIPKcSsEEEC1IS5_EET_S8_@Base 0.4c
 _ZN5boost14iterator_rangeIN9__gnu_cxx17__normal_iteratorIPKcSsEEEC1ISsEERKT_NS_21iterator_range_detail15const_range_tagE@Base 0.4c
 _ZN5boost14iterator_rangeIN9__gnu_cxx17__normal_iteratorIPKcSsEEEaSERKS6_@Base 0.4c
 _ZN5boost14iterator_rangeIN9__gnu_cxx17__normal_iteratorIPcSsEEEC1IS4_EET_S7_@Base 0.4c
 _ZN5boost14iterator_rangeIN9__gnu_cxx17__normal_iteratorIPcSsEEEaSIS5_EERS5_RT_@Base 0.4c
 _ZN5boost14iterator_rangeIPKcEC1Ev@Base 0.4c
 _ZN5boost14iterator_rangeIPKcEC1IS2_EET_S5_@Base 0.4c
 _ZN5boost14iterator_rangeIPKcEaSERKS3_@Base 0.4c
 _ZN5boost15foreach_detail_13auto_any_baseC2Ev@Base 0.4c
 _ZN5boost15foreach_detail_13auto_any_castIN9__gnu_cxx17__normal_iteratorIPPN3hpp5debug6OutputESt6vectorIS7_SaIS7_EEEEN4mpl_5bool_ILb0EEEEERNS_3mpl3if_IT0_KT_SJ_E4typeERKNS0_13auto_any_baseE@Base 0.4c
 _ZN5boost15foreach_detail_13auto_any_castIPSt6vectorIPN3hpp5debug6OutputESaIS6_EEN4mpl_5bool_ILb0EEEEERNS_3mpl3if_IT0_KT_SG_E4typeERKNS0_13auto_any_baseE@Base 0.4c
 _ZN5boost15foreach_detail_3endISt6vectorIPN3hpp5debug6OutputESaIS6_EEN4mpl_5bool_ILb0EEEEENS0_8auto_anyINS0_16foreach_iteratorIT_T0_E4typeEEERKNS0_13auto_any_baseEPNS0_9type2typeISE_SF_EEPSB_@Base 0.4c
 _ZN5boost15foreach_detail_4doneISt6vectorIPN3hpp5debug6OutputESaIS6_EEN4mpl_5bool_ILb0EEEEEbRKNS0_13auto_any_baseESE_PNS0_9type2typeIT_T0_EE@Base 0.4c
 _ZN5boost15foreach_detail_4nextISt6vectorIPN3hpp5debug6OutputESaIS6_EEN4mpl_5bool_ILb0EEEEEvRKNS0_13auto_any_baseEPNS0_9type2typeIT_T0_EE@Base 0.4c
 _ZN5boost15foreach_detail_5beginISt6vectorIPN3hpp5debug6OutputESaIS6_EEN4mpl_5bool_ILb0EEEEENS0_8auto_anyINS0_16foreach_iteratorIT_T0_E4typeEEERKNS0_13auto_any_baseEPNS0_9type2typeISE_SF_EEPSB_@Base 0.4c
 _ZN5boost15foreach_detail_5derefISt6vectorIPN3hpp5debug6OutputESaIS6_EEN4mpl_5bool_ILb0EEEEENS0_17foreach_referenceIT_T0_E4typeERKNS0_13auto_any_baseEPNS0_9type2typeISD_SE_EE@Base 0.4c
 _ZN5boost15foreach_detail_7containISt6vectorIPN3hpp5debug6OutputESaIS6_EEEENS0_8auto_anyIPT_EERSA_PN4mpl_5bool_ILb0EEE@Base 0.4c
 _ZN5boost15foreach_detail_7derefofISt6vectorIPN3hpp5debug6OutputESaIS6_EEEERT_PS9_@Base 0.4c
 _ZN5boost15foreach_detail_8auto_anyIN9__gnu_cxx17__normal_iteratorIPPN3hpp5debug6OutputESt6vectorIS7_SaIS7_EEEEEC1ERKSC_@Base 0.4c
 _ZN5boost15foreach_detail_8auto_anyIPSt6vectorIPN3hpp5debug6OutputESaIS6_EEEC1ERKS9_@Base 0.4c
 _ZN5boost15foreach_detail_9set_falseERb@Base 0.4c
 _ZN5boost15iterator_facadeINS_18transform_iteratorINS_9algorithm6detail20copy_iterator_rangeFISsPKcEENS2_14split_iteratorIS6_EENS_11use_defaultESA_EESsNS_21forward_traversal_tagESsiE7derivedEv@Base 0.4c
 _ZN5boost15iterator_facadeINS_18transform_iteratorINS_9algorithm6detail20copy_iterator_rangeFISsPKcEENS2_14split_iteratorIS6_EENS_11use_defaultESA_EESsNS_21forward_traversal_tagESsiEC2Ev@Base 0.4c
 _ZN5boost15iterator_facadeINS_18transform_iteratorINS_9algorithm6detail20copy_iterator_rangeFISsPKcEENS2_14split_iteratorIS6_EENS_11use_defaultESA_EESsNS_21forward_traversal_tagESsiEppEv@Base 0.4c
 _ZN5boost15iterator_facadeINS_9algorithm14split_iteratorIPKcEEKNS_14iterator_rangeIS4_EENS_21forward_traversal_tagERS8_iE7derivedEv@Base 0.4c
 _ZN5boost15iterator_facadeINS_9algorithm14split_iteratorIPKcEEKNS_14iterator_rangeIS4_EENS_21forward_traversal_tagERS8_iEC2Ev@Base 0.4c
 _ZN5boost15iterator_facadeINS_9algorithm14split_iteratorIPKcEEKNS_14iterator_rangeIS4_EENS_21forward_traversal_tagERS8_iEppEv@Base 0.4c
 _ZN5boost15optional_detail12optional_tagC2Ev@Base 0.4c
 _ZN5boost15optional_detail13optional_baseISt6localeE10get_objectEv@Base 0.4c
 _ZN5boost15optional_detail13optional_baseISt6localeE11dereferenceEPS2_N4mpl_5bool_ILb0EEE@Base 0.4c
 _ZN5boost15optional_detail13optional_baseISt6localeE12assign_valueERKS2_N4mpl_5bool_ILb0EEE@Base 0.4c
 _ZN5boost15optional_detail13optional_baseISt6localeE12destroy_implEN4mpl_5bool_ILb0EEE@Base 0.4c
 _ZN5boost15optional_detail13optional_baseISt6localeE12get_ptr_implEv@Base 0.4c
 _ZN5boost15optional_detail13optional_baseISt6localeE6assignIS2_EEvRKNS_8optionalIT_EE@Base 0.4c
 _ZN5boost15optional_detail13optional_baseISt6localeE7destroyEv@Base 0.4c
 _ZN5boost15optional_detail13optional_baseISt6localeE7get_ptrEv@Base 0.4c
 _ZN5boost15optional_detail13optional_baseISt6localeE8cast_ptrEPS2_N4mpl_5bool_ILb0EEE@Base 0.4c
 _ZN5boost15optional_detail13optional_baseISt6localeE8get_implEv@Base 0.4c
 _ZN5boost15optional_detail13optional_baseISt6localeE9constructERKS2_@Base 0.4c
 _ZN5boost15optional_detail13optional_baseISt6localeEC2ERKS3_@Base 0.4c
 _ZN5boost15optional_detail13optional_baseISt6localeEC2Ev@Base 0.4c
 _ZN5boost15optional_detail13optional_baseISt6localeED2Ev@Base 0.4c
 _ZN5boost15optional_detail15aligned_storageISt6localeE7addressEv@Base 0.4c
 _ZN5boost15throw_exceptionINS_10filesystem22basic_filesystem_errorINS1_10basic_pathISsNS1_11path_traitsEEEEEEEvRKT_@Base 0.4c
 _ZN5boost15throw_exceptionINS_17bad_function_callEEEvRKT_@Base 0.4c
 _ZN5boost15throw_exceptionINS_2io12too_few_argsEEEvRKT_@Base 0.4c
 _ZN5boost15throw_exceptionINS_2io13too_many_argsEEEvRKT_@Base 0.4c
 _ZN5boost15throw_exceptionINS_2io17bad_format_stringEEEvRKT_@Base 0.4c
 _ZN5boost15throw_exceptionINS_9gregorian11bad_weekdayEEEvRKT_@Base 0.4c
 _ZN5boost15throw_exceptionINS_9gregorian15bad_day_of_yearEEEvRKT_@Base 0.4c
 _ZN5boost15throw_exceptionINS_9gregorian16bad_day_of_monthEEEvRKT_@Base 0.4c
 _ZN5boost15throw_exceptionINS_9gregorian8bad_yearEEEvRKT_@Base 0.4c
 _ZN5boost15throw_exceptionINS_9gregorian9bad_monthEEEvRKT_@Base 0.4c
 _ZN5boost15throw_exceptionISt12out_of_rangeEEvRKT_@Base 0.4c
 _ZN5boost15throw_exceptionISt13runtime_errorEEvRKT_@Base 0.4c
 _ZN5boost16base_from_memberINS_10shared_ptrINS_2io18basic_altstringbufIcSt11char_traitsIcESaIcEEEEELi0EEC2IPS7_NS2_22basic_oaltstringstreamIcS5_S6_E5No_OpEEET_T0_@Base 0.4c
 _ZN5boost16base_from_memberINS_10shared_ptrINS_2io18basic_altstringbufIcSt11char_traitsIcESaIcEEEEELi0EED2Ev@Base 0.4c
 _ZN5boost16exception_detail10clone_baseC2ERKS1_@Base 0.4c
 _ZN5boost16exception_detail10clone_baseC2Ev@Base 0.4c
 _ZN5boost16exception_detail10clone_baseD0Ev@Base 0.4c
 _ZN5boost16exception_detail10clone_baseD1Ev@Base 0.4c
 _ZN5boost16exception_detail10clone_baseD2Ev@Base 0.4c
 _ZN5boost16exception_detail10clone_implINS0_19error_info_injectorINS_10filesystem22basic_filesystem_errorINS3_10basic_pathISsNS3_11path_traitsEEEEEEEEC1ERKS9_@Base 0.4c
 _ZN5boost16exception_detail10clone_implINS0_19error_info_injectorINS_10filesystem22basic_filesystem_errorINS3_10basic_pathISsNS3_11path_traitsEEEEEEEEC1ERKSA_@Base 0.4c
 _ZN5boost16exception_detail10clone_implINS0_19error_info_injectorINS_10filesystem22basic_filesystem_errorINS3_10basic_pathISsNS3_11path_traitsEEEEEEEED0Ev@Base 0.4c
 _ZN5boost16exception_detail10clone_implINS0_19error_info_injectorINS_10filesystem22basic_filesystem_errorINS3_10basic_pathISsNS3_11path_traitsEEEEEEEED1Ev@Base 0.4c
 _ZN5boost16exception_detail10clone_implINS0_19error_info_injectorINS_17bad_function_callEEEEC1ERKS4_@Base 0.4c
 _ZN5boost16exception_detail10clone_implINS0_19error_info_injectorINS_17bad_function_callEEEEC1ERKS5_@Base 0.4c
 _ZN5boost16exception_detail10clone_implINS0_19error_info_injectorINS_17bad_function_callEEEED0Ev@Base 0.4c
 _ZN5boost16exception_detail10clone_implINS0_19error_info_injectorINS_17bad_function_callEEEED1Ev@Base 0.4c
 _ZN5boost16exception_detail10clone_implINS0_19error_info_injectorINS_2io12too_few_argsEEEEC1ERKS5_@Base 0.4c
 _ZN5boost16exception_detail10clone_implINS0_19error_info_injectorINS_2io12too_few_argsEEEEC1ERKS6_@Base 0.4c
 _ZN5boost16exception_detail10clone_implINS0_19error_info_injectorINS_2io12too_few_argsEEEED0Ev@Base 0.4c
 _ZN5boost16exception_detail10clone_implINS0_19error_info_injectorINS_2io12too_few_argsEEEED1Ev@Base 0.4c
 _ZN5boost16exception_detail10clone_implINS0_19error_info_injectorINS_2io13too_many_argsEEEEC1ERKS5_@Base 0.4c
 _ZN5boost16exception_detail10clone_implINS0_19error_info_injectorINS_2io13too_many_argsEEEEC1ERKS6_@Base 0.4c
 _ZN5boost16exception_detail10clone_implINS0_19error_info_injectorINS_2io13too_many_argsEEEED0Ev@Base 0.4c
 _ZN5boost16exception_detail10clone_implINS0_19error_info_injectorINS_2io13too_many_argsEEEED1Ev@Base 0.4c
 _ZN5boost16exception_detail10clone_implINS0_19error_info_injectorINS_2io17bad_format_stringEEEEC1ERKS5_@Base 0.4c
 _ZN5boost16exception_detail10clone_implINS0_19error_info_injectorINS_2io17bad_format_stringEEEEC1ERKS6_@Base 0.4c
 _ZN5boost16exception_detail10clone_implINS0_19error_info_injectorINS_2io17bad_format_stringEEEED0Ev@Base 0.4c
 _ZN5boost16exception_detail10clone_implINS0_19error_info_injectorINS_2io17bad_format_stringEEEED1Ev@Base 0.4c
 _ZN5boost16exception_detail10clone_implINS0_19error_info_injectorINS_9gregorian11bad_weekdayEEEEC1ERKS5_@Base 0.4c
 _ZN5boost16exception_detail10clone_implINS0_19error_info_injectorINS_9gregorian11bad_weekdayEEEEC1ERKS6_@Base 0.4c
 _ZN5boost16exception_detail10clone_implINS0_19error_info_injectorINS_9gregorian11bad_weekdayEEEED0Ev@Base 0.4c
 _ZN5boost16exception_detail10clone_implINS0_19error_info_injectorINS_9gregorian11bad_weekdayEEEED1Ev@Base 0.4c
 _ZN5boost16exception_detail10clone_implINS0_19error_info_injectorINS_9gregorian15bad_day_of_yearEEEEC1ERKS5_@Base 0.4c
 _ZN5boost16exception_detail10clone_implINS0_19error_info_injectorINS_9gregorian15bad_day_of_yearEEEEC1ERKS6_@Base 0.4c
 _ZN5boost16exception_detail10clone_implINS0_19error_info_injectorINS_9gregorian15bad_day_of_yearEEEED0Ev@Base 0.4c
 _ZN5boost16exception_detail10clone_implINS0_19error_info_injectorINS_9gregorian15bad_day_of_yearEEEED1Ev@Base 0.4c
 _ZN5boost16exception_detail10clone_implINS0_19error_info_injectorINS_9gregorian16bad_day_of_monthEEEEC1ERKS5_@Base 0.4c
 _ZN5boost16exception_detail10clone_implINS0_19error_info_injectorINS_9gregorian16bad_day_of_monthEEEEC1ERKS6_@Base 0.4c
 _ZN5boost16exception_detail10clone_implINS0_19error_info_injectorINS_9gregorian16bad_day_of_monthEEEED0Ev@Base 0.4c
 _ZN5boost16exception_detail10clone_implINS0_19error_info_injectorINS_9gregorian16bad_day_of_monthEEEED1Ev@Base 0.4c
 _ZN5boost16exception_detail10clone_implINS0_19error_info_injectorINS_9gregorian8bad_yearEEEEC1ERKS5_@Base 0.4c
 _ZN5boost16exception_detail10clone_implINS0_19error_info_injectorINS_9gregorian8bad_yearEEEEC1ERKS6_@Base 0.4c
 _ZN5boost16exception_detail10clone_implINS0_19error_info_injectorINS_9gregorian8bad_yearEEEED0Ev@Base 0.4c
 _ZN5boost16exception_detail10clone_implINS0_19error_info_injectorINS_9gregorian8bad_yearEEEED1Ev@Base 0.4c
 _ZN5boost16exception_detail10clone_implINS0_19error_info_injectorINS_9gregorian9bad_monthEEEEC1ERKS5_@Base 0.4c
 _ZN5boost16exception_detail10clone_implINS0_19error_info_injectorINS_9gregorian9bad_monthEEEEC1ERKS6_@Base 0.4c
 _ZN5boost16exception_detail10clone_implINS0_19error_info_injectorINS_9gregorian9bad_monthEEEED0Ev@Base 0.4c
 _ZN5boost16exception_detail10clone_implINS0_19error_info_injectorINS_9gregorian9bad_monthEEEED1Ev@Base 0.4c
 _ZN5boost16exception_detail10clone_implINS0_19error_info_injectorISt12out_of_rangeEEEC1ERKS4_@Base 0.4c
 _ZN5boost16exception_detail10clone_implINS0_19error_info_injectorISt12out_of_rangeEEEC1ERKS5_@Base 0.4c
 _ZN5boost16exception_detail10clone_implINS0_19error_info_injectorISt12out_of_rangeEEED0Ev@Base 0.4c
 _ZN5boost16exception_detail10clone_implINS0_19error_info_injectorISt12out_of_rangeEEED1Ev@Base 0.4c
 _ZN5boost16exception_detail10clone_implINS0_19error_info_injectorISt13runtime_errorEEEC1ERKS4_@Base 0.4c
 _ZN5boost16exception_detail10clone_implINS0_19error_info_injectorISt13runtime_errorEEEC1ERKS5_@Base 0.4c
 _ZN5boost16exception_detail10clone_implINS0_19error_info_injectorISt13runtime_errorEEED0Ev@Base 0.4c
 _ZN5boost16exception_detail10clone_implINS0_19error_info_injectorISt13runtime_errorEEED1Ev@Base 0.4c
 _ZN5boost16exception_detail12refcount_ptrINS0_20error_info_containerEE5adoptEPS2_@Base 0.4c
 _ZN5boost16exception_detail12refcount_ptrINS0_20error_info_containerEE7add_refEv@Base 0.4c
 _ZN5boost16exception_detail12refcount_ptrINS0_20error_info_containerEE7releaseEv@Base 0.4c
 _ZN5boost16exception_detail12refcount_ptrINS0_20error_info_containerEEC1ERKS3_@Base 0.4c
 _ZN5boost16exception_detail12refcount_ptrINS0_20error_info_containerEEC1Ev@Base 0.4c
 _ZN5boost16exception_detail12refcount_ptrINS0_20error_info_containerEED1Ev@Base 0.4c
 _ZN5boost16exception_detail12refcount_ptrINS0_20error_info_containerEEaSERKS3_@Base 0.4c
 _ZN5boost16exception_detail19error_info_injectorINS_10filesystem22basic_filesystem_errorINS2_10basic_pathISsNS2_11path_traitsEEEEEEC1ERKS7_@Base 0.4c
 _ZN5boost16exception_detail19error_info_injectorINS_10filesystem22basic_filesystem_errorINS2_10basic_pathISsNS2_11path_traitsEEEEEEC2ERKS8_@Base 0.4c
 _ZN5boost16exception_detail19error_info_injectorINS_10filesystem22basic_filesystem_errorINS2_10basic_pathISsNS2_11path_traitsEEEEEED0Ev@Base 0.4c
 _ZN5boost16exception_detail19error_info_injectorINS_10filesystem22basic_filesystem_errorINS2_10basic_pathISsNS2_11path_traitsEEEEEED1Ev@Base 0.4c
 _ZN5boost16exception_detail19error_info_injectorINS_10filesystem22basic_filesystem_errorINS2_10basic_pathISsNS2_11path_traitsEEEEEED2Ev@Base 0.4c
 _ZN5boost16exception_detail19error_info_injectorINS_17bad_function_callEEC1ERKS2_@Base 0.4c
 _ZN5boost16exception_detail19error_info_injectorINS_17bad_function_callEEC2ERKS3_@Base 0.4c
 _ZN5boost16exception_detail19error_info_injectorINS_17bad_function_callEED0Ev@Base 0.4c
 _ZN5boost16exception_detail19error_info_injectorINS_17bad_function_callEED1Ev@Base 0.4c
 _ZN5boost16exception_detail19error_info_injectorINS_17bad_function_callEED2Ev@Base 0.4c
 _ZN5boost16exception_detail19error_info_injectorINS_2io12too_few_argsEEC1ERKS3_@Base 0.4c
 _ZN5boost16exception_detail19error_info_injectorINS_2io12too_few_argsEEC2ERKS4_@Base 0.4c
 _ZN5boost16exception_detail19error_info_injectorINS_2io12too_few_argsEED0Ev@Base 0.4c
 _ZN5boost16exception_detail19error_info_injectorINS_2io12too_few_argsEED1Ev@Base 0.4c
 _ZN5boost16exception_detail19error_info_injectorINS_2io12too_few_argsEED2Ev@Base 0.4c
 _ZN5boost16exception_detail19error_info_injectorINS_2io13too_many_argsEEC1ERKS3_@Base 0.4c
 _ZN5boost16exception_detail19error_info_injectorINS_2io13too_many_argsEEC2ERKS4_@Base 0.4c
 _ZN5boost16exception_detail19error_info_injectorINS_2io13too_many_argsEED0Ev@Base 0.4c
 _ZN5boost16exception_detail19error_info_injectorINS_2io13too_many_argsEED1Ev@Base 0.4c
 _ZN5boost16exception_detail19error_info_injectorINS_2io13too_many_argsEED2Ev@Base 0.4c
 _ZN5boost16exception_detail19error_info_injectorINS_2io17bad_format_stringEEC1ERKS3_@Base 0.4c
 _ZN5boost16exception_detail19error_info_injectorINS_2io17bad_format_stringEEC2ERKS4_@Base 0.4c
 _ZN5boost16exception_detail19error_info_injectorINS_2io17bad_format_stringEED0Ev@Base 0.4c
 _ZN5boost16exception_detail19error_info_injectorINS_2io17bad_format_stringEED1Ev@Base 0.4c
 _ZN5boost16exception_detail19error_info_injectorINS_2io17bad_format_stringEED2Ev@Base 0.4c
 _ZN5boost16exception_detail19error_info_injectorINS_9gregorian11bad_weekdayEEC1ERKS3_@Base 0.4c
 _ZN5boost16exception_detail19error_info_injectorINS_9gregorian11bad_weekdayEEC2ERKS4_@Base 0.4c
 _ZN5boost16exception_detail19error_info_injectorINS_9gregorian11bad_weekdayEED0Ev@Base 0.4c
 _ZN5boost16exception_detail19error_info_injectorINS_9gregorian11bad_weekdayEED1Ev@Base 0.4c
 _ZN5boost16exception_detail19error_info_injectorINS_9gregorian11bad_weekdayEED2Ev@Base 0.4c
 _ZN5boost16exception_detail19error_info_injectorINS_9gregorian15bad_day_of_yearEEC1ERKS3_@Base 0.4c
 _ZN5boost16exception_detail19error_info_injectorINS_9gregorian15bad_day_of_yearEEC2ERKS4_@Base 0.4c
 _ZN5boost16exception_detail19error_info_injectorINS_9gregorian15bad_day_of_yearEED0Ev@Base 0.4c
 _ZN5boost16exception_detail19error_info_injectorINS_9gregorian15bad_day_of_yearEED1Ev@Base 0.4c
 _ZN5boost16exception_detail19error_info_injectorINS_9gregorian15bad_day_of_yearEED2Ev@Base 0.4c
 _ZN5boost16exception_detail19error_info_injectorINS_9gregorian16bad_day_of_monthEEC1ERKS3_@Base 0.4c
 _ZN5boost16exception_detail19error_info_injectorINS_9gregorian16bad_day_of_monthEEC2ERKS4_@Base 0.4c
 _ZN5boost16exception_detail19error_info_injectorINS_9gregorian16bad_day_of_monthEED0Ev@Base 0.4c
 _ZN5boost16exception_detail19error_info_injectorINS_9gregorian16bad_day_of_monthEED1Ev@Base 0.4c
 _ZN5boost16exception_detail19error_info_injectorINS_9gregorian16bad_day_of_monthEED2Ev@Base 0.4c
 _ZN5boost16exception_detail19error_info_injectorINS_9gregorian8bad_yearEEC1ERKS3_@Base 0.4c
 _ZN5boost16exception_detail19error_info_injectorINS_9gregorian8bad_yearEEC2ERKS4_@Base 0.4c
 _ZN5boost16exception_detail19error_info_injectorINS_9gregorian8bad_yearEED0Ev@Base 0.4c
 _ZN5boost16exception_detail19error_info_injectorINS_9gregorian8bad_yearEED1Ev@Base 0.4c
 _ZN5boost16exception_detail19error_info_injectorINS_9gregorian8bad_yearEED2Ev@Base 0.4c
 _ZN5boost16exception_detail19error_info_injectorINS_9gregorian9bad_monthEEC1ERKS3_@Base 0.4c
 _ZN5boost16exception_detail19error_info_injectorINS_9gregorian9bad_monthEEC2ERKS4_@Base 0.4c
 _ZN5boost16exception_detail19error_info_injectorINS_9gregorian9bad_monthEED0Ev@Base 0.4c
 _ZN5boost16exception_detail19error_info_injectorINS_9gregorian9bad_monthEED1Ev@Base 0.4c
 _ZN5boost16exception_detail19error_info_injectorINS_9gregorian9bad_monthEED2Ev@Base 0.4c
 _ZN5boost16exception_detail19error_info_injectorISt12out_of_rangeEC1ERKS2_@Base 0.4c
 _ZN5boost16exception_detail19error_info_injectorISt12out_of_rangeEC2ERKS3_@Base 0.4c
 _ZN5boost16exception_detail19error_info_injectorISt12out_of_rangeED0Ev@Base 0.4c
 _ZN5boost16exception_detail19error_info_injectorISt12out_of_rangeED1Ev@Base 0.4c
 _ZN5boost16exception_detail19error_info_injectorISt12out_of_rangeED2Ev@Base 0.4c
 _ZN5boost16exception_detail19error_info_injectorISt13runtime_errorEC1ERKS2_@Base 0.4c
 _ZN5boost16exception_detail19error_info_injectorISt13runtime_errorEC2ERKS3_@Base 0.4c
 _ZN5boost16exception_detail19error_info_injectorISt13runtime_errorED0Ev@Base 0.4c
 _ZN5boost16exception_detail19error_info_injectorISt13runtime_errorED1Ev@Base 0.4c
 _ZN5boost16exception_detail19error_info_injectorISt13runtime_errorED2Ev@Base 0.4c
 _ZN5boost16exception_detail20copy_boost_exceptionEPNS_9exceptionEPKS1_@Base 0.4c
 _ZN5boost16iterator_adaptorINS_18transform_iteratorINS_9algorithm6detail20copy_iterator_rangeFISsPKcEENS2_14split_iteratorIS6_EENS_11use_defaultESA_EES9_SsSA_SsSA_E9incrementEv@Base 0.4c
 _ZN5boost16iterator_adaptorINS_18transform_iteratorINS_9algorithm6detail20copy_iterator_rangeFISsPKcEENS2_14split_iteratorIS6_EENS_11use_defaultESA_EES9_SsSA_SsSA_EC2ERKS9_@Base 0.4c
 _ZN5boost16iterator_adaptorINS_18transform_iteratorINS_9algorithm6detail20copy_iterator_rangeFISsPKcEENS2_14split_iteratorIS6_EENS_11use_defaultESA_EES9_SsSA_SsSA_EC2ERKSC_@Base 0.4c
 _ZN5boost16iterator_adaptorINS_18transform_iteratorINS_9algorithm6detail20copy_iterator_rangeFISsPKcEENS2_14split_iteratorIS6_EENS_11use_defaultESA_EES9_SsSA_SsSA_ED2Ev@Base 0.4c
 _ZN5boost17bad_function_callC1Ev@Base 0.4c
 _ZN5boost17bad_function_callC2ERKS0_@Base 0.4c
 _ZN5boost17bad_function_callD0Ev@Base 0.4c
 _ZN5boost17bad_function_callD1Ev@Base 0.4c
 _ZN5boost17bad_function_callD2Ev@Base 0.4c
 _ZN5boost17enable_error_infoINS_10filesystem22basic_filesystem_errorINS1_10basic_pathISsNS1_11path_traitsEEEEEEENS_16exception_detail29enable_error_info_return_typeIT_E4typeERKS9_@Base 0.4c
 _ZN5boost17enable_error_infoINS_17bad_function_callEEENS_16exception_detail29enable_error_info_return_typeIT_E4typeERKS4_@Base 0.4c
 _ZN5boost17enable_error_infoINS_2io12too_few_argsEEENS_16exception_detail29enable_error_info_return_typeIT_E4typeERKS5_@Base 0.4c
 _ZN5boost17enable_error_infoINS_2io13too_many_argsEEENS_16exception_detail29enable_error_info_return_typeIT_E4typeERKS5_@Base 0.4c
 _ZN5boost17enable_error_infoINS_2io17bad_format_stringEEENS_16exception_detail29enable_error_info_return_typeIT_E4typeERKS5_@Base 0.4c
 _ZN5boost17enable_error_infoINS_9gregorian11bad_weekdayEEENS_16exception_detail29enable_error_info_return_typeIT_E4typeERKS5_@Base 0.4c
 _ZN5boost17enable_error_infoINS_9gregorian15bad_day_of_yearEEENS_16exception_detail29enable_error_info_return_typeIT_E4typeERKS5_@Base 0.4c
 _ZN5boost17enable_error_infoINS_9gregorian16bad_day_of_monthEEENS_16exception_detail29enable_error_info_return_typeIT_E4typeERKS5_@Base 0.4c
 _ZN5boost17enable_error_infoINS_9gregorian8bad_yearEEENS_16exception_detail29enable_error_info_return_typeIT_E4typeERKS5_@Base 0.4c
 _ZN5boost17enable_error_infoINS_9gregorian9bad_monthEEENS_16exception_detail29enable_error_info_return_typeIT_E4typeERKS5_@Base 0.4c
 _ZN5boost17enable_error_infoISt12out_of_rangeEENS_16exception_detail29enable_error_info_return_typeIT_E4typeERKS4_@Base 0.4c
 _ZN5boost17enable_error_infoISt13runtime_errorEENS_16exception_detail29enable_error_info_return_typeIT_E4typeERKS4_@Base 0.4c
 _ZN5boost17function_requiresINS_9algorithm13FinderConceptINS1_6detail13first_finderFIN9__gnu_cxx17__normal_iteratorIPKcSsEENS1_8is_equalEEES9_EEEEvPT_@Base 0.4c
 _ZN5boost17function_requiresINS_9algorithm13FinderConceptINS1_6detail13first_finderFIPKcNS1_8is_equalEEEN9__gnu_cxx17__normal_iteratorIS6_SsEEEEEEvPT_@Base 0.4c
 _ZN5boost17function_requiresINS_9algorithm13FinderConceptINS1_6detail13token_finderFINS3_10is_any_ofFIcEEEEPKcEEEEvPT_@Base 0.4c
 _ZN5boost17function_requiresINS_9algorithm16FormatterConceptINS1_6detail13const_formatFINS_14iterator_rangeIN9__gnu_cxx17__normal_iteratorIPKcSsEEEEEENS3_13first_finderFIS9_NS1_8is_equalEEESA_EEEEvPT_@Base 0.4c
 _ZN5boost17function_requiresINS_9algorithm16FormatterConceptINS1_6detail13const_formatFINS_14iterator_rangeIPKcEEEENS3_13first_finderFIS7_NS1_8is_equalEEEN9__gnu_cxx17__normal_iteratorIS7_SsEEEEEEvPT_@Base 0.4c
 _ZN5boost17function_requiresINS_9algorithm16FormatterConceptINS1_6detail13empty_formatFIcEENS3_13first_finderFIN9__gnu_cxx17__normal_iteratorIPKcSsEENS1_8is_equalEEESB_EEEEvPT_@Base 0.4c
 _ZN5boost17function_requiresINS_9algorithm16FormatterConceptINS1_6detail13empty_formatFIcEENS3_13first_finderFIPKcNS1_8is_equalEEEN9__gnu_cxx17__normal_iteratorIS8_SsEEEEEEvPT_@Base 0.4c
 _ZN5boost18transform_iteratorINS_9algorithm6detail20copy_iterator_rangeFISsPKcEENS1_14split_iteratorIS5_EENS_11use_defaultES9_EC1ERKS8_S6_@Base 0.4c
 _ZN5boost18transform_iteratorINS_9algorithm6detail20copy_iterator_rangeFISsPKcEENS1_14split_iteratorIS5_EENS_11use_defaultES9_EC1ERKSA_@Base 0.4c
 _ZN5boost18transform_iteratorINS_9algorithm6detail20copy_iterator_rangeFISsPKcEENS1_14split_iteratorIS5_EENS_11use_defaultES9_ED1Ev@Base 0.4c
 _ZN5boost19equality_comparableINS_10posix_time13time_durationES2_NS_6detail10empty_baseIS2_EENS3_7false_tEEC2Ev@Base 0.4c
 _ZN5boost19equality_comparableINS_10posix_time5ptimeES2_NS_6detail10empty_baseIS2_EENS3_7false_tEEC2Ev@Base 0.4c
 _ZN5boost19equality_comparableINS_9date_time6periodINS_10posix_time5ptimeENS3_13time_durationEEES6_NS_6detail10empty_baseIS6_EENS7_7false_tEEC2Ev@Base 0.4c
 _ZN5boost19equality_comparableINS_9gregorian4dateES2_NS_6detail10empty_baseIS2_EENS3_7false_tEEC2Ev@Base 0.4c
 _ZN5boost19make_iterator_rangeISsEENS_14iterator_rangeINS_14range_iteratorIKT_E4typeEEERS4_@Base 0.4c
 _ZN5boost20equality_comparable1INS_10posix_time13time_durationENS_6detail10empty_baseIS2_EEEC2Ev@Base 0.4c
 _ZN5boost20equality_comparable1INS_10posix_time5ptimeENS_6detail10empty_baseIS2_EEEC2Ev@Base 0.4c
 _ZN5boost20equality_comparable1INS_9date_time13date_durationINS1_23duration_traits_adaptedEEENS_8addable1IS4_NS_13subtractable1IS4_NS_10dividable2IS4_iNS_6detail10empty_baseIS4_EEEEEEEEEC2Ev@Base 0.4c
 _ZN5boost20equality_comparable1INS_9date_time6periodINS_10posix_time5ptimeENS3_13time_durationEEENS_6detail10empty_baseIS6_EEEC2Ev@Base 0.4c
 _ZN5boost20equality_comparable1INS_9gregorian4dateENS_6detail10empty_baseIS2_EEEC2Ev@Base 0.4c
 _ZN5boost20iterator_core_access11dereferenceINS_18transform_iteratorINS_9algorithm6detail20copy_iterator_rangeFISsPKcEENS3_14split_iteratorIS7_EENS_11use_defaultESB_EEEENT_9referenceERKSD_@Base 0.4c
 _ZN5boost20iterator_core_access11dereferenceINS_9algorithm14split_iteratorIPKcEEEENT_9referenceERKS7_@Base 0.4c
 _ZN5boost20iterator_core_access5equalINS_18transform_iteratorINS_9algorithm6detail20copy_iterator_rangeFISsPKcEENS3_14split_iteratorIS7_EENS_11use_defaultESB_EESC_EEbRKT_RKT0_N4mpl_5bool_ILb1EEE@Base 0.4c
 _ZN5boost20iterator_core_access5equalINS_9algorithm14split_iteratorIPKcEES6_EEbRKT_RKT0_N4mpl_5bool_ILb1EEE@Base 0.4c
 _ZN5boost20iterator_core_access9incrementINS_18transform_iteratorINS_9algorithm6detail20copy_iterator_rangeFISsPKcEENS3_14split_iteratorIS7_EENS_11use_defaultESB_EEEEvRT_@Base 0.4c
 _ZN5boost20iterator_core_access9incrementINS_9algorithm14split_iteratorIPKcEEEEvRT_@Base 0.4c
 _ZN5boost20less_than_comparableINS_10posix_time13time_durationENS_19equality_comparableIS2_S2_NS_6detail10empty_baseIS2_EENS4_7false_tEEES6_NS4_6true_tEEC2Ev@Base 0.4c
 _ZN5boost20less_than_comparableINS_10posix_time5ptimeENS_19equality_comparableIS2_S2_NS_6detail10empty_baseIS2_EENS4_7false_tEEES6_NS4_6true_tEEC2Ev@Base 0.4c
 _ZN5boost20less_than_comparableINS_9date_time6periodINS_10posix_time5ptimeENS3_13time_durationEEENS_19equality_comparableIS6_S6_NS_6detail10empty_baseIS6_EENS8_7false_tEEESA_NS8_6true_tEEC2Ev@Base 0.4c
 _ZN5boost20less_than_comparableINS_9gregorian4dateENS_19equality_comparableIS2_S2_NS_6detail10empty_baseIS2_EENS4_7false_tEEES6_NS4_6true_tEEC2Ev@Base 0.4c
 _ZN5boost21iterator_range_detail19iterator_range_implIN9__gnu_cxx17__normal_iteratorIPKcSsEEE7adl_endIKSsEES6_RT_@Base 0.4c
 _ZN5boost21iterator_range_detail19iterator_range_implIN9__gnu_cxx17__normal_iteratorIPKcSsEEE9adl_beginIKSsEES6_RT_@Base 0.4c
 _ZN5boost21iterator_range_detail19iterator_range_implIN9__gnu_cxx17__normal_iteratorIPcSsEEE7adl_endINS_14iterator_rangeIS5_EEEES5_RT_@Base 0.4c
 _ZN5boost21iterator_range_detail19iterator_range_implIN9__gnu_cxx17__normal_iteratorIPcSsEEE9adl_beginINS_14iterator_rangeIS5_EEEES5_RT_@Base 0.4c
 _ZN5boost21iterator_range_detail5equalINS_14iterator_rangeIPKcEES5_EEbRKT_RKT0_@Base 0.4c
 _ZN5boost21less_than_comparable1INS_10posix_time13time_durationENS_19equality_comparableIS2_S2_NS_6detail10empty_baseIS2_EENS4_7false_tEEEEC2Ev@Base 0.4c
 _ZN5boost21less_than_comparable1INS_10posix_time5ptimeENS_19equality_comparableIS2_S2_NS_6detail10empty_baseIS2_EENS4_7false_tEEEEC2Ev@Base 0.4c
 _ZN5boost21less_than_comparable1INS_9date_time13date_durationINS1_23duration_traits_adaptedEEENS_20equality_comparable1IS4_NS_8addable1IS4_NS_13subtractable1IS4_NS_10dividable2IS4_iNS_6detail10empty_baseIS4_EEEEEEEEEEEC2Ev@Base 0.4c
 _ZN5boost21less_than_comparable1INS_9date_time6periodINS_10posix_time5ptimeENS3_13time_durationEEENS_19equality_comparableIS6_S6_NS_6detail10empty_baseIS6_EENS8_7false_tEEEEC2Ev@Base 0.4c
 _ZN5boost21less_than_comparable1INS_9gregorian4dateENS_19equality_comparableIS2_S2_NS_6detail10empty_baseIS2_EENS4_7false_tEEEEC2Ev@Base 0.4c
 _ZN5boost23make_transform_iteratorINS_9algorithm6detail20copy_iterator_rangeFISsPKcEENS1_14split_iteratorIS5_EEEENS_18transform_iteratorIT_T0_NS_11use_defaultESC_EESB_SA_@Base 0.4c
 _ZN5boost24enable_current_exceptionINS_16exception_detail19error_info_injectorINS_10filesystem22basic_filesystem_errorINS3_10basic_pathISsNS3_11path_traitsEEEEEEEEENS1_10clone_implIT_EERKSB_@Base 0.4c
 _ZN5boost24enable_current_exceptionINS_16exception_detail19error_info_injectorINS_17bad_function_callEEEEENS1_10clone_implIT_EERKS6_@Base 0.4c
 _ZN5boost24enable_current_exceptionINS_16exception_detail19error_info_injectorINS_2io12too_few_argsEEEEENS1_10clone_implIT_EERKS7_@Base 0.4c
 _ZN5boost24enable_current_exceptionINS_16exception_detail19error_info_injectorINS_2io13too_many_argsEEEEENS1_10clone_implIT_EERKS7_@Base 0.4c
 _ZN5boost24enable_current_exceptionINS_16exception_detail19error_info_injectorINS_2io17bad_format_stringEEEEENS1_10clone_implIT_EERKS7_@Base 0.4c
 _ZN5boost24enable_current_exceptionINS_16exception_detail19error_info_injectorINS_9gregorian11bad_weekdayEEEEENS1_10clone_implIT_EERKS7_@Base 0.4c
 _ZN5boost24enable_current_exceptionINS_16exception_detail19error_info_injectorINS_9gregorian15bad_day_of_yearEEEEENS1_10clone_implIT_EERKS7_@Base 0.4c
 _ZN5boost24enable_current_exceptionINS_16exception_detail19error_info_injectorINS_9gregorian16bad_day_of_monthEEEEENS1_10clone_implIT_EERKS7_@Base 0.4c
 _ZN5boost24enable_current_exceptionINS_16exception_detail19error_info_injectorINS_9gregorian8bad_yearEEEEENS1_10clone_implIT_EERKS7_@Base 0.4c
 _ZN5boost24enable_current_exceptionINS_16exception_detail19error_info_injectorINS_9gregorian9bad_monthEEEEENS1_10clone_implIT_EERKS7_@Base 0.4c
 _ZN5boost24enable_current_exceptionINS_16exception_detail19error_info_injectorISt12out_of_rangeEEEENS1_10clone_implIT_EERKS6_@Base 0.4c
 _ZN5boost24enable_current_exceptionINS_16exception_detail19error_info_injectorISt13runtime_errorEEEENS1_10clone_implIT_EERKS6_@Base 0.4c
 _ZN5boost2CV17constrained_valueINS0_23simple_exception_policyItLt0ELt6ENS_9gregorian11bad_weekdayEEEE3maxEv@Base 0.4c
 _ZN5boost2CV17constrained_valueINS0_23simple_exception_policyItLt0ELt6ENS_9gregorian11bad_weekdayEEEE3minEv@Base 0.4c
 _ZN5boost2CV17constrained_valueINS0_23simple_exception_policyItLt0ELt6ENS_9gregorian11bad_weekdayEEEE6assignEt@Base 0.4c
 _ZN5boost2CV17constrained_valueINS0_23simple_exception_policyItLt0ELt6ENS_9gregorian11bad_weekdayEEEEC2Et@Base 0.4c
 _ZN5boost2CV17constrained_valueINS0_23simple_exception_policyItLt1400ELt10000ENS_9gregorian8bad_yearEEEE3maxEv@Base 0.4c
 _ZN5boost2CV17constrained_valueINS0_23simple_exception_policyItLt1400ELt10000ENS_9gregorian8bad_yearEEEE3minEv@Base 0.4c
 _ZN5boost2CV17constrained_valueINS0_23simple_exception_policyItLt1400ELt10000ENS_9gregorian8bad_yearEEEE6assignEt@Base 0.4c
 _ZN5boost2CV17constrained_valueINS0_23simple_exception_policyItLt1400ELt10000ENS_9gregorian8bad_yearEEEEC2Et@Base 0.4c
 _ZN5boost2CV17constrained_valueINS0_23simple_exception_policyItLt1ELt12ENS_9gregorian9bad_monthEEEE3maxEv@Base 0.4c
 _ZN5boost2CV17constrained_valueINS0_23simple_exception_policyItLt1ELt12ENS_9gregorian9bad_monthEEEE3minEv@Base 0.4c
 _ZN5boost2CV17constrained_valueINS0_23simple_exception_policyItLt1ELt12ENS_9gregorian9bad_monthEEEE6assignEt@Base 0.4c
 _ZN5boost2CV17constrained_valueINS0_23simple_exception_policyItLt1ELt12ENS_9gregorian9bad_monthEEEEC2Et@Base 0.4c
 _ZN5boost2CV17constrained_valueINS0_23simple_exception_policyItLt1ELt31ENS_9gregorian16bad_day_of_monthEEEE3maxEv@Base 0.4c
 _ZN5boost2CV17constrained_valueINS0_23simple_exception_policyItLt1ELt31ENS_9gregorian16bad_day_of_monthEEEE3minEv@Base 0.4c
 _ZN5boost2CV17constrained_valueINS0_23simple_exception_policyItLt1ELt31ENS_9gregorian16bad_day_of_monthEEEE6assignEt@Base 0.4c
 _ZN5boost2CV17constrained_valueINS0_23simple_exception_policyItLt1ELt31ENS_9gregorian16bad_day_of_monthEEEEC2Et@Base 0.4c
 _ZN5boost2CV17constrained_valueINS0_23simple_exception_policyItLt1ELt366ENS_9gregorian15bad_day_of_yearEEEE3maxEv@Base 0.4c
 _ZN5boost2CV17constrained_valueINS0_23simple_exception_policyItLt1ELt366ENS_9gregorian15bad_day_of_yearEEEE3minEv@Base 0.4c
 _ZN5boost2CV17constrained_valueINS0_23simple_exception_policyItLt1ELt366ENS_9gregorian15bad_day_of_yearEEEE6assignEt@Base 0.4c
 _ZN5boost2CV17constrained_valueINS0_23simple_exception_policyItLt1ELt366ENS_9gregorian15bad_day_of_yearEEEEC1Et@Base 0.4c
 _ZN5boost2CV23simple_exception_policyItLt0ELt6ENS_9gregorian11bad_weekdayEE3maxEv@Base 0.4c
 _ZN5boost2CV23simple_exception_policyItLt0ELt6ENS_9gregorian11bad_weekdayEE3minEv@Base 0.4c
 _ZN5boost2CV23simple_exception_policyItLt0ELt6ENS_9gregorian11bad_weekdayEE8on_errorEttNS0_14violation_enumE@Base 0.4c
 _ZN5boost2CV23simple_exception_policyItLt1400ELt10000ENS_9gregorian8bad_yearEE3maxEv@Base 0.4c
 _ZN5boost2CV23simple_exception_policyItLt1400ELt10000ENS_9gregorian8bad_yearEE3minEv@Base 0.4c
 _ZN5boost2CV23simple_exception_policyItLt1400ELt10000ENS_9gregorian8bad_yearEE8on_errorEttNS0_14violation_enumE@Base 0.4c
 _ZN5boost2CV23simple_exception_policyItLt1ELt12ENS_9gregorian9bad_monthEE3maxEv@Base 0.4c
 _ZN5boost2CV23simple_exception_policyItLt1ELt12ENS_9gregorian9bad_monthEE3minEv@Base 0.4c
 _ZN5boost2CV23simple_exception_policyItLt1ELt12ENS_9gregorian9bad_monthEE8on_errorEttNS0_14violation_enumE@Base 0.4c
 _ZN5boost2CV23simple_exception_policyItLt1ELt31ENS_9gregorian16bad_day_of_monthEE3maxEv@Base 0.4c
 _ZN5boost2CV23simple_exception_policyItLt1ELt31ENS_9gregorian16bad_day_of_monthEE3minEv@Base 0.4c
 _ZN5boost2CV23simple_exception_policyItLt1ELt31ENS_9gregorian16bad_day_of_monthEE8on_errorEttNS0_14violation_enumE@Base 0.4c
 _ZN5boost2CV23simple_exception_policyItLt1ELt366ENS_9gregorian15bad_day_of_yearEE3maxEv@Base 0.4c
 _ZN5boost2CV23simple_exception_policyItLt1ELt366ENS_9gregorian15bad_day_of_yearEE3minEv@Base 0.4c
 _ZN5boost2CV23simple_exception_policyItLt1ELt366ENS_9gregorian15bad_day_of_yearEE8on_errorEttNS0_14violation_enumE@Base 0.4c
 _ZN5boost2io12format_errorC2ERKS1_@Base 0.4c
 _ZN5boost2io12format_errorC2Ev@Base 0.4c
 _ZN5boost2io12format_errorD0Ev@Base 0.4c
 _ZN5boost2io12format_errorD1Ev@Base 0.4c
 _ZN5boost2io12format_errorD2Ev@Base 0.4c
 _ZN5boost2io12too_few_argsC1Ejj@Base 0.4c
 _ZN5boost2io12too_few_argsC2ERKS1_@Base 0.4c
 _ZN5boost2io12too_few_argsD0Ev@Base 0.4c
 _ZN5boost2io12too_few_argsD1Ev@Base 0.4c
 _ZN5boost2io12too_few_argsD2Ev@Base 0.4c
 _ZN5boost2io13too_many_argsC1Ejj@Base 0.4c
 _ZN5boost2io13too_many_argsC2ERKS1_@Base 0.4c
 _ZN5boost2io13too_many_argsD0Ev@Base 0.4c
 _ZN5boost2io13too_many_argsD1Ev@Base 0.4c
 _ZN5boost2io13too_many_argsD2Ev@Base 0.4c
 _ZN5boost2io15ios_flags_saver7restoreEv@Base 0.4c
 _ZN5boost2io15ios_flags_saverC1ERSt8ios_base@Base 0.4c
 _ZN5boost2io15ios_flags_saverD1Ev@Base 0.4c
 _ZN5boost2io17bad_format_stringC1Ejj@Base 0.4c
 _ZN5boost2io17bad_format_stringC2ERKS1_@Base 0.4c
 _ZN5boost2io17bad_format_stringD0Ev@Base 0.4c
 _ZN5boost2io17bad_format_stringD1Ev@Base 0.4c
 _ZN5boost2io17bad_format_stringD2Ev@Base 0.4c
 _ZN5boost2io18basic_altstringbufIcSt11char_traitsIcESaIcEE12clear_bufferEv@Base 0.4c
 _ZN5boost2io18basic_altstringbufIcSt11char_traitsIcESaIcEE7deallocEv@Base 0.4c
 _ZN5boost2io18basic_altstringbufIcSt11char_traitsIcESaIcEE7seekoffExSt12_Ios_SeekdirSt13_Ios_Openmode@Base 0.4c
 _ZN5boost2io18basic_altstringbufIcSt11char_traitsIcESaIcEE7seekposESt4fposI11__mbstate_tESt13_Ios_Openmode@Base 0.4c
 _ZN5boost2io18basic_altstringbufIcSt11char_traitsIcESaIcEE8overflowEi@Base 0.4c
 _ZN5boost2io18basic_altstringbufIcSt11char_traitsIcESaIcEE9pbackfailEi@Base 0.4c
 _ZN5boost2io18basic_altstringbufIcSt11char_traitsIcESaIcEE9underflowEv@Base 0.4c
 _ZN5boost2io18basic_altstringbufIcSt11char_traitsIcESaIcEEC1ESt13_Ios_Openmode@Base 0.4c
 _ZN5boost2io18basic_altstringbufIcSt11char_traitsIcESaIcEED0Ev@Base 0.4c
 _ZN5boost2io18basic_altstringbufIcSt11char_traitsIcESaIcEED1Ev@Base 0.4c
 _ZN5boost2io22basic_oaltstringstreamIcSt11char_traitsIcESaIcEE5No_OpclIPNS0_18basic_altstringbufIcS3_S4_EEEERKT_SD_@Base 0.4c
 _ZN5boost2io22basic_oaltstringstreamIcSt11char_traitsIcESaIcEEC1EPNS0_18basic_altstringbufIcS3_S4_EE@Base 0.4c
 _ZN5boost2io22basic_oaltstringstreamIcSt11char_traitsIcESaIcEED0Ev@Base 0.4c
 _ZN5boost2io22basic_oaltstringstreamIcSt11char_traitsIcESaIcEED1Ev@Base 0.4c
 _ZN5boost2io6detail10distributeIcSt11char_traitsIcESaIcERKNS_10posix_time13time_durationEEEvRNS_12basic_formatIT_T0_T1_EET2_@Base 0.4c
 _ZN5boost2io6detail10distributeIcSt11char_traitsIcESaIcERKNS_10posix_time5ptimeEEEvRNS_12basic_formatIT_T0_T1_EET2_@Base 0.4c
 _ZN5boost2io6detail10distributeIcSt11char_traitsIcESaIcERKSsEEvRNS_12basic_formatIT_T0_T1_EET2_@Base 0.4c
 _ZN5boost2io6detail10distributeIcSt11char_traitsIcESaIcERKiEEvRNS_12basic_formatIT_T0_T1_EET2_@Base 0.4c
 _ZN5boost2io6detail10distributeIcSt11char_traitsIcESaIcERKjEEvRNS_12basic_formatIT_T0_T1_EET2_@Base 0.4c
 _ZN5boost2io6detail11format_itemIcSt11char_traitsIcESaIcEE14compute_statesEv@Base 0.4c
 _ZN5boost2io6detail11format_itemIcSt11char_traitsIcESaIcEE14max_streamsizeEv@Base 0.4c
 _ZN5boost2io6detail11format_itemIcSt11char_traitsIcESaIcEE5resetEc@Base 0.4c
 _ZN5boost2io6detail11format_itemIcSt11char_traitsIcESaIcEEC1ERKS6_@Base 0.4c
 _ZN5boost2io6detail11format_itemIcSt11char_traitsIcESaIcEEC1Ec@Base 0.4c
 _ZN5boost2io6detail11format_itemIcSt11char_traitsIcESaIcEED1Ev@Base 0.4c
 _ZN5boost2io6detail11format_itemIcSt11char_traitsIcESaIcEEaSERKS6_@Base 0.4c
 _ZN5boost2io6detail11wrap_narrowIcSt5ctypeIcEEEcRKT0_T_c@Base 0.4c
 _ZN5boost2io6detail12const_or_notISt5ctypeIcEEERKT_S7_@Base 0.4c
 _ZN5boost2io6detail12wrap_isdigitIcSt5ctypeIcEEEbRKT0_T_@Base 0.4c
 _ZN5boost2io6detail13append_stringISsEEvRT_RKS3_NS3_9size_typeES7_@Base 0.4c
 _ZN5boost2io6detail13skip_asteriskIN9__gnu_cxx17__normal_iteratorIPKcSsEESt5ctypeIcEEET_SA_SA_RKT0_@Base 0.4c
 _ZN5boost2io6detail18wrap_scan_notdigitIN9__gnu_cxx17__normal_iteratorIPKcSsEESt5ctypeIcEEET_RKT0_SA_SA_@Base 0.4c
 _ZN5boost2io6detail19stream_format_stateIcSt11char_traitsIcEE5resetEc@Base 0.4c
 _ZN5boost2io6detail19stream_format_stateIcSt11char_traitsIcEEC1ERKS5_@Base 0.4c
 _ZN5boost2io6detail19stream_format_stateIcSt11char_traitsIcEEC1Ec@Base 0.4c
 _ZN5boost2io6detail19stream_format_stateIcSt11char_traitsIcEED1Ev@Base 0.4c
 _ZN5boost2io6detail19stream_format_stateIcSt11char_traitsIcEEaSERKS5_@Base 0.4c
 _ZN5boost2io6detail21maybe_throw_exceptionEhjj@Base 0.4c
 _ZN5boost2io6detail22parse_printf_directiveIcSt11char_traitsIcESaIcEN9__gnu_cxx17__normal_iteratorIPKcSsEESt5ctypeIcEEEbRT2_RKSD_PNS1_11format_itemIT_T0_T1_EERKT3_jh@Base 0.4c
 _ZN5boost2io6detail24upper_bound_from_fstringISsSt5ctypeIcEEEiRKT_NS5_10value_typeERKT0_h@Base 0.4c
 _ZN5boost2io6detail3putIcSt11char_traitsIcESaIcERKNS_10posix_time13time_durationEEEvT2_RKNS1_11format_itemIT_T0_T1_EERNS_12basic_formatISC_SD_SE_E11string_typeERNSJ_20internal_streambuf_tEPSt6locale@Base 0.4c
 _ZN5boost2io6detail3putIcSt11char_traitsIcESaIcERKNS_10posix_time5ptimeEEEvT2_RKNS1_11format_itemIT_T0_T1_EERNS_12basic_formatISC_SD_SE_E11string_typeERNSJ_20internal_streambuf_tEPSt6locale@Base 0.4c
 _ZN5boost2io6detail3putIcSt11char_traitsIcESaIcERKSsEEvT2_RKNS1_11format_itemIT_T0_T1_EERNS_12basic_formatISA_SB_SC_E11string_typeERNSH_20internal_streambuf_tEPSt6locale@Base 0.4c
 _ZN5boost2io6detail3putIcSt11char_traitsIcESaIcERKiEEvT2_RKNS1_11format_itemIT_T0_T1_EERNS_12basic_formatISA_SB_SC_E11string_typeERNSH_20internal_streambuf_tEPSt6locale@Base 0.4c
 _ZN5boost2io6detail3putIcSt11char_traitsIcESaIcERKjEEvT2_RKNS1_11format_itemIT_T0_T1_EERNS_12basic_formatISA_SB_SC_E11string_typeERNSH_20internal_streambuf_tEPSt6locale@Base 0.4c
 _ZN5boost2io6detail4feedIcSt11char_traitsIcESaIcERKNS_10posix_time13time_durationEEERNS_12basic_formatIT_T0_T1_EESF_T2_@Base 0.4c
 _ZN5boost2io6detail4feedIcSt11char_traitsIcESaIcERKNS_10posix_time5ptimeEEERNS_12basic_formatIT_T0_T1_EESF_T2_@Base 0.4c
 _ZN5boost2io6detail4feedIcSt11char_traitsIcESaIcERKSsEERNS_12basic_formatIT_T0_T1_EESD_T2_@Base 0.4c
 _ZN5boost2io6detail4feedIcSt11char_traitsIcESaIcERKiEERNS_12basic_formatIT_T0_T1_EESD_T2_@Base 0.4c
 _ZN5boost2io6detail4feedIcSt11char_traitsIcESaIcERKjEERNS_12basic_formatIT_T0_T1_EESD_T2_@Base 0.4c
 _ZN5boost2io6detail6mk_strIcSt11char_traitsIcESaIcEEEvRSbIT_T0_T1_EPKS6_NS9_9size_typeEiS6_St13_Ios_FmtflagsS6_b@Base 0.4c
 _ZN5boost2io6detail7str2intIiN9__gnu_cxx17__normal_iteratorIPKcSsEESt5ctypeIcEEET0_RKSA_SC_RT_RKT1_@Base 0.4c
 _ZN5boost2io6detail8put_headIcSt11char_traitsIcENS_10posix_time13time_durationEEEvRSt13basic_ostreamIT_T0_ERKT1_@Base 0.4c
 _ZN5boost2io6detail8put_headIcSt11char_traitsIcENS_10posix_time5ptimeEEEvRSt13basic_ostreamIT_T0_ERKT1_@Base 0.4c
 _ZN5boost2io6detail8put_headIcSt11char_traitsIcESsEEvRSt13basic_ostreamIT_T0_ERKT1_@Base 0.4c
 _ZN5boost2io6detail8put_headIcSt11char_traitsIcEiEEvRSt13basic_ostreamIT_T0_ERKT1_@Base 0.4c
 _ZN5boost2io6detail8put_headIcSt11char_traitsIcEjEEvRSt13basic_ostreamIT_T0_ERKT1_@Base 0.4c
 _ZN5boost2io6detail8put_lastIcSt11char_traitsIcENS_10posix_time13time_durationEEEvRSt13basic_ostreamIT_T0_ERKT1_@Base 0.4c
 _ZN5boost2io6detail8put_lastIcSt11char_traitsIcENS_10posix_time5ptimeEEEvRSt13basic_ostreamIT_T0_ERKT1_@Base 0.4c
 _ZN5boost2io6detail8put_lastIcSt11char_traitsIcESsEEvRSt13basic_ostreamIT_T0_ERKT1_@Base 0.4c
 _ZN5boost2io6detail8put_lastIcSt11char_traitsIcEiEEvRSt13basic_ostreamIT_T0_ERKT1_@Base 0.4c
 _ZN5boost2io6detail8put_lastIcSt11char_traitsIcEjEEvRSt13basic_ostreamIT_T0_ERKT1_@Base 0.4c
 _ZN5boost36throw_exception_assert_compatibilityERKSt9exception@Base 0.4c
 _ZN5boost3endINS_14iterator_rangeIN9__gnu_cxx17__normal_iteratorIPKcSsEEEEEENS_14range_iteratorIKT_E4typeERSA_@Base 0.4c
 _ZN5boost3endINS_14iterator_rangeIN9__gnu_cxx17__normal_iteratorIPcSsEEEEEENS_14range_iteratorIT_E4typeERS8_@Base 0.4c
 _ZN5boost3endINS_14iterator_rangeIPKcEEEENS_14range_iteratorIKT_E4typeERS7_@Base 0.4c
 _ZN5boost3endINS_14iterator_rangeIPKcEEEENS_14range_iteratorIT_E4typeERS6_@Base 0.4c
 _ZN5boost3endINS_9algorithm6detail15empty_containerIcEEEENS_14range_iteratorIKT_E4typeERS7_@Base 0.4c
 _ZN5boost3endISsEENS_14range_iteratorIKT_E4typeERS3_@Base 0.4c
 _ZN5boost3endISsEENS_14range_iteratorIT_E4typeERS2_@Base 0.4c
 _ZN5boost3endISt6vectorIPN3hpp5debug6OutputESaIS5_EEEENS_14range_iteratorIT_E4typeERS9_@Base 0.4c
 _ZN5boost5beginINS_14iterator_rangeIN9__gnu_cxx17__normal_iteratorIPKcSsEEEEEENS_14range_iteratorIKT_E4typeERSA_@Base 0.4c
 _ZN5boost5beginINS_14iterator_rangeIN9__gnu_cxx17__normal_iteratorIPcSsEEEEEENS_14range_iteratorIT_E4typeERS8_@Base 0.4c
 _ZN5boost5beginINS_14iterator_rangeIPKcEEEENS_14range_iteratorIKT_E4typeERS7_@Base 0.4c
 _ZN5boost5beginINS_14iterator_rangeIPKcEEEENS_14range_iteratorIT_E4typeERS6_@Base 0.4c
 _ZN5boost5beginINS_9algorithm6detail15empty_containerIcEEEENS_14range_iteratorIKT_E4typeERS7_@Base 0.4c
 _ZN5boost5beginISsEENS_14range_iteratorIKT_E4typeERS3_@Base 0.4c
 _ZN5boost5beginISsEENS_14range_iteratorIT_E4typeERS2_@Base 0.4c
 _ZN5boost5beginISt6vectorIPN3hpp5debug6OutputESaIS5_EEEENS_14range_iteratorIT_E4typeERS9_@Base 0.4c
 _ZN5boost5emptyINS_14iterator_rangeIN9__gnu_cxx17__normal_iteratorIPKcSsEEEEEEbRKT_@Base 0.4c
 _ZN5boost5emptyINS_14iterator_rangeIPKcEEEEbRKT_@Base 0.4c
 _ZN5boost6assign7list_ofIPN3hpp5debug6OutputEEENS_13assign_detail12generic_listIT_EERKS8_@Base 0.4c
 _ZN5boost6detail10empty_baseINS_10posix_time13time_durationEEC2Ev@Base 0.4c
 _ZN5boost6detail10empty_baseINS_10posix_time5ptimeEEC2Ev@Base 0.4c
 _ZN5boost6detail10empty_baseINS_9date_time13date_durationINS2_23duration_traits_adaptedEEEEC2Ev@Base 0.4c
 _ZN5boost6detail10empty_baseINS_9date_time6periodINS_10posix_time5ptimeENS4_13time_durationEEEEC2Ev@Base 0.4c
 _ZN5boost6detail10empty_baseINS_9gregorian4dateEEC2Ev@Base 0.4c
 _ZN5boost6detail12shared_count4swapERS1_@Base 0.4c
 _ZN5boost6detail12shared_countC1ERKS1_@Base 0.4c
 _ZN5boost6detail12shared_countC1Ev@Base 0.4c
 _ZN5boost6detail12shared_countC1INS_10filesystem22basic_filesystem_errorINS3_10basic_pathISsNS3_11path_traitsEEEE5m_impEEEPT_@Base 0.4c
 _ZN5boost6detail12shared_countC1IPNS_2io18basic_altstringbufIcSt11char_traitsIcESaIcEEENS3_22basic_oaltstringstreamIcS6_S7_E5No_OpEEET_T0_@Base 0.4c
 _ZN5boost6detail12shared_countD1Ev@Base 0.4c
 _ZN5boost6detail13addr_impl_refINS_9algorithm6detail13token_finderFINS3_10is_any_ofFIcEEEEEC1ERS7_@Base 0.4c
 _ZN5boost6detail13addr_impl_refISt6vectorIPN3hpp5debug6OutputESaIS6_EEEC1ERS8_@Base 0.4c
 _ZN5boost6detail14addressof_implINS_9algorithm6detail13token_finderFINS3_10is_any_ofFIcEEEEE1fERS7_l@Base 0.4c
 _ZN5boost6detail14addressof_implISt6vectorIPN3hpp5debug6OutputESaIS6_EEE1fERS8_l@Base 0.4c
 _ZN5boost6detail15sp_counted_base12add_ref_copyEv@Base 0.4c
 _ZN5boost6detail15sp_counted_base12weak_releaseEv@Base 0.4c
 _ZN5boost6detail15sp_counted_base7destroyEv@Base 0.4c
 _ZN5boost6detail15sp_counted_base7releaseEv@Base 0.4c
 _ZN5boost6detail15sp_counted_baseC2Ev@Base 0.4c
 _ZN5boost6detail15sp_counted_baseD0Ev@Base 0.4c
 _ZN5boost6detail15sp_counted_baseD1Ev@Base 0.4c
 _ZN5boost6detail15sp_counted_baseD2Ev@Base 0.4c
 _ZN5boost6detail16atomic_incrementEPi@Base 0.4c
 _ZN5boost6detail17sp_counted_impl_pINS_10filesystem22basic_filesystem_errorINS2_10basic_pathISsNS2_11path_traitsEEEE5m_impEE11get_deleterERKSt9type_info@Base 0.4c
 _ZN5boost6detail17sp_counted_impl_pINS_10filesystem22basic_filesystem_errorINS2_10basic_pathISsNS2_11path_traitsEEEE5m_impEE7disposeEv@Base 0.4c
 _ZN5boost6detail17sp_counted_impl_pINS_10filesystem22basic_filesystem_errorINS2_10basic_pathISsNS2_11path_traitsEEEE5m_impEEC1EPS8_@Base 0.4c
 _ZN5boost6detail17sp_counted_impl_pINS_10filesystem22basic_filesystem_errorINS2_10basic_pathISsNS2_11path_traitsEEEE5m_impEED0Ev@Base 0.4c
 _ZN5boost6detail17sp_counted_impl_pINS_10filesystem22basic_filesystem_errorINS2_10basic_pathISsNS2_11path_traitsEEEE5m_impEED1Ev@Base 0.4c
 _ZN5boost6detail18sp_counted_impl_pdIPNS_2io18basic_altstringbufIcSt11char_traitsIcESaIcEEENS2_22basic_oaltstringstreamIcS5_S6_E5No_OpEE11get_deleterERKSt9type_info@Base 0.4c
 _ZN5boost6detail18sp_counted_impl_pdIPNS_2io18basic_altstringbufIcSt11char_traitsIcESaIcEEENS2_22basic_oaltstringstreamIcS5_S6_E5No_OpEE7disposeEv@Base 0.4c
 _ZN5boost6detail18sp_counted_impl_pdIPNS_2io18basic_altstringbufIcSt11char_traitsIcESaIcEEENS2_22basic_oaltstringstreamIcS5_S6_E5No_OpEEC1ES8_SB_@Base 0.4c
 _ZN5boost6detail18sp_counted_impl_pdIPNS_2io18basic_altstringbufIcSt11char_traitsIcESaIcEEENS2_22basic_oaltstringstreamIcS5_S6_E5No_OpEED0Ev@Base 0.4c
 _ZN5boost6detail18sp_counted_impl_pdIPNS_2io18basic_altstringbufIcSt11char_traitsIcESaIcEEENS2_22basic_oaltstringstreamIcS5_S6_E5No_OpEED1Ev@Base 0.4c
 _ZN5boost6detail23atomic_exchange_and_addEPii@Base 0.4c
 _ZN5boost6detail26sp_enable_shared_from_thisEz@Base 0.4c
 _ZN5boost6detail8function13basic_vtable2INS_14iterator_rangeIPKcEES5_S5_E14assign_functorINS_9algorithm6detail13token_finderFINSA_10is_any_ofFIcEEEEEEvT_RNS1_15function_bufferEN4mpl_5bool_ILb0EEE@Base 0.4c
 _ZN5boost6detail8function13basic_vtable2INS_14iterator_rangeIPKcEES5_S5_E5clearERNS1_15function_bufferE@Base 0.4c
 _ZN5boost6detail8function13basic_vtable2INS_14iterator_rangeIPKcEES5_S5_E9assign_toINS_9algorithm6detail13token_finderFINSA_10is_any_ofFIcEEEEEEbT_RNS1_15function_bufferE@Base 0.4c
 _ZN5boost6detail8function13basic_vtable2INS_14iterator_rangeIPKcEES5_S5_E9assign_toINS_9algorithm6detail13token_finderFINSA_10is_any_ofFIcEEEEEEbT_RNS1_15function_bufferENS1_16function_obj_tagE@Base 0.4c
 _ZN5boost6detail8function15functor_managerINS_9algorithm6detail13token_finderFINS4_10is_any_ofFIcEEEEE6manageERKNS1_15function_bufferERSA_NS1_30functor_manager_operation_typeE@Base 0.4c
 _ZN5boost6detail8function15functor_managerINS_9algorithm6detail13token_finderFINS4_10is_any_ofFIcEEEEE7managerERKNS1_15function_bufferERSA_NS1_30functor_manager_operation_typeEN4mpl_5bool_ILb0EEE@Base 0.4c
 _ZN5boost6detail8function15functor_managerINS_9algorithm6detail13token_finderFINS4_10is_any_ofFIcEEEEE7managerERKNS1_15function_bufferERSA_NS1_30functor_manager_operation_typeENS1_16function_obj_tagE@Base 0.4c
 _ZN5boost6detail8function16has_empty_targetEz@Base 0.4c
 _ZN5boost6detail8function21function_obj_invoker2INS_9algorithm6detail13token_finderFINS4_10is_any_ofFIcEEEENS_14iterator_rangeIPKcEESB_SB_E6invokeERNS1_15function_bufferESB_SB_@Base 0.4c
 _ZN5boost6system10error_code21unspecified_bool_trueEv@Base 0.4c
 _ZN5boost6system10error_codeC1EiRKNS0_14error_categoryE@Base 0.4c
 _ZN5boost6system10error_codeC1Ev@Base 0.4c
 _ZN5boost6system12system_errorC2ENS0_10error_codeERKSs@Base 0.4c
 _ZN5boost6system12system_errorC2ERKS1_@Base 0.4c
 _ZN5boost6system12system_errorD0Ev@Base 0.4c
 _ZN5boost6system12system_errorD1Ev@Base 0.4c
 _ZN5boost6system12system_errorD2Ev@Base 0.4c
 _ZN5boost6system4errc15make_error_codeENS1_6errc_tE@Base 0.4c
 _ZN5boost8addable1INS_9date_time13date_durationINS1_23duration_traits_adaptedEEENS_13subtractable1IS4_NS_10dividable2IS4_iNS_6detail10empty_baseIS4_EEEEEEEC2Ev@Base 0.4c
 _ZN5boost8distanceINS_14iterator_rangeIPKcEEEENS_16range_differenceIT_E4typeERKS6_@Base 0.4c
 _ZN5boost8optionalISt6localeEC1ERKS2_@Base 0.4c
 _ZN5boost8optionalISt6localeEC1Ev@Base 0.4c
 _ZN5boost8optionalISt6localeED1Ev@Base 0.4c
 _ZN5boost8optionalISt6localeEaSERKS2_@Base 0.4c
 _ZN5boost9addressofINS_9algorithm6detail13token_finderFINS2_10is_any_ofFIcEEEEEEPT_RS7_@Base 0.4c
 _ZN5boost9addressofISt6vectorIPN3hpp5debug6OutputESaIS5_EEEEPT_RS8_@Base 0.4c
 _ZN5boost9algorithm10iter_splitISt6vectorISsSaISsEEPKcNS0_6detail13token_finderFINS7_10is_any_ofFIcEEEEEERT_SD_RT0_T1_@Base 0.4c
 _ZN5boost9algorithm11replace_allISsA3_cSsEEvRT_RKT0_RKT1_@Base 0.4c
 _ZN5boost9algorithm11replace_allISsPKcS3_EEvRT_RKT0_RKT1_@Base 0.4c
 _ZN5boost9algorithm11replace_allISsPKcSsEEvRT_RKT0_RKT1_@Base 0.4c
 _ZN5boost9algorithm12first_finderIA3_cEENS0_6detail13first_finderFINS_20range_const_iteratorIT_E4typeENS0_8is_equalEEERKS6_@Base 0.4c
 _ZN5boost9algorithm12first_finderIPKcEENS0_6detail13first_finderFINS_20range_const_iteratorIT_E4typeENS0_8is_equalEEERKS7_@Base 0.4c
 _ZN5boost9algorithm12first_finderISsEENS0_6detail13first_finderFINS_20range_const_iteratorIT_E4typeENS0_8is_equalEEERKS5_@Base 0.4c
 _ZN5boost9algorithm12token_finderINS0_6detail10is_any_ofFIcEEEENS2_13token_finderFIT_EES6_NS0_24token_compress_mode_typeE@Base 0.4c
 _ZN5boost9algorithm14split_iteratorIPKcE9incrementEv@Base 0.4c
 _ZN5boost9algorithm14split_iteratorIPKcEC1ERKS4_@Base 0.4c
 _ZN5boost9algorithm14split_iteratorIPKcEC1Ev@Base 0.4c
 _ZN5boost9algorithm14split_iteratorIPKcEC1INS0_6detail13token_finderFINS6_10is_any_ofFIcEEEEEES3_S3_T_@Base 0.4c
 _ZN5boost9algorithm14split_iteratorIPKcED1Ev@Base 0.4c
 _ZN5boost9algorithm15const_formatterIPKcEENS0_6detail13const_formatFINS_14iterator_rangeINS_20range_const_iteratorIT_E4typeEEEEERKS8_@Base 0.4c
 _ZN5boost9algorithm15const_formatterISsEENS0_6detail13const_formatFINS_14iterator_rangeINS_20range_const_iteratorIT_E4typeEEEEERKS6_@Base 0.4c
 _ZN5boost9algorithm15empty_formatterISsEENS0_6detail13empty_formatFINS_11range_valueIT_E4typeEEERKS5_@Base 0.4c
 _ZN5boost9algorithm15find_format_allISsNS0_6detail13first_finderFIN9__gnu_cxx17__normal_iteratorIPKcSsEENS0_8is_equalEEENS2_13empty_formatFIcEEEEvRT_T0_T1_@Base 0.4c
 _ZN5boost9algorithm15find_format_allISsNS0_6detail13first_finderFIPKcNS0_8is_equalEEENS2_13const_formatFINS_14iterator_rangeIN9__gnu_cxx17__normal_iteratorIS5_SsEEEEEEEEvRT_T0_T1_@Base 0.4c
 _ZN5boost9algorithm15find_format_allISsNS0_6detail13first_finderFIPKcNS0_8is_equalEEENS2_13const_formatFINS_14iterator_rangeIS5_EEEEEEvRT_T0_T1_@Base 0.4c
 _ZN5boost9algorithm15find_format_allISsNS0_6detail13first_finderFIPKcNS0_8is_equalEEENS2_13empty_formatFIcEEEEvRT_T0_T1_@Base 0.4c
 _ZN5boost9algorithm16predicate_facadeINS0_6detail10is_any_ofFIcEEEC2Ev@Base 0.4c
 _ZN5boost9algorithm5splitISt6vectorISsSaISsEEPKcNS0_6detail10is_any_ofFIcEEEERT_SB_RT0_T1_NS0_24token_compress_mode_typeE@Base 0.4c
 _ZN5boost9algorithm6detail10is_any_ofFIcE17use_fixed_storageEj@Base 0.4c
 _ZN5boost9algorithm6detail10is_any_ofFIcEC1ERKS3_@Base 0.4c
 _ZN5boost9algorithm6detail10is_any_ofFIcEC1INS_14iterator_rangeIPKcEEEERKT_@Base 0.4c
 _ZN5boost9algorithm6detail10is_any_ofFIcED1Ev@Base 0.4c
 _ZN5boost9algorithm6detail13const_formatFINS_14iterator_rangeIN9__gnu_cxx17__normal_iteratorIPKcSsEEEEEC1ERKS9_@Base 0.4c
 _ZN5boost9algorithm6detail13const_formatFINS_14iterator_rangeIPKcEEEC1ERKS6_@Base 0.4c
 _ZN5boost9algorithm6detail13first_finderFIN9__gnu_cxx17__normal_iteratorIPKcSsEENS0_8is_equalEEC1INS_14iterator_rangeIS7_EEEERKT_S8_@Base 0.4c
 _ZN5boost9algorithm6detail13first_finderFIPKcNS0_8is_equalEEC1INS_14iterator_rangeIS4_EEEERKT_S5_@Base 0.4c
 _ZN5boost9algorithm6detail13token_finderFINS1_10is_any_ofFIcEEEC1ERKS5_@Base 0.4c
 _ZN5boost9algorithm6detail13token_finderFINS1_10is_any_ofFIcEEEC1ES4_NS0_24token_compress_mode_typeE@Base 0.4c
 _ZN5boost9algorithm6detail13token_finderFINS1_10is_any_ofFIcEEED1Ev@Base 0.4c
 _ZN5boost9algorithm6detail15copy_to_storageISt5dequeIcSaIcEENS1_15empty_containerIcEEEEvRT_RKT0_@Base 0.4c
 _ZN5boost9algorithm6detail15copy_to_storageISt5dequeIcSaIcEENS_14iterator_rangeIN9__gnu_cxx17__normal_iteratorIPKcSsEEEEEEvRT_RKT0_@Base 0.4c
 _ZN5boost9algorithm6detail15copy_to_storageISt5dequeIcSaIcEENS_14iterator_rangeIPKcEEEEvRT_RKT0_@Base 0.4c
 _ZN5boost9algorithm6detail15process_segmentISt5dequeIcSaIcEESsN9__gnu_cxx17__normal_iteratorIPcSsEEEET1_RT_RT0_SA_SA_SA_@Base 0.4c
 _ZN5boost9algorithm6detail17find_format_storeIN9__gnu_cxx17__normal_iteratorIPcSsEENS1_13const_formatFINS_14iterator_rangeINS4_IPKcSsEEEEEESC_E13format_resultEv@Base 0.4c
 _ZN5boost9algorithm6detail17find_format_storeIN9__gnu_cxx17__normal_iteratorIPcSsEENS1_13const_formatFINS_14iterator_rangeINS4_IPKcSsEEEEEESC_EC1ERKNS8_IS6_EERKSC_RKSD_@Base 0.4c
 _ZN5boost9algorithm6detail17find_format_storeIN9__gnu_cxx17__normal_iteratorIPcSsEENS1_13const_formatFINS_14iterator_rangeINS4_IPKcSsEEEEEESC_EaSINS8_IS6_EEEERSE_T_@Base 0.4c
 _ZN5boost9algorithm6detail17find_format_storeIN9__gnu_cxx17__normal_iteratorIPcSsEENS1_13const_formatFINS_14iterator_rangeIPKcEEEESB_E13format_resultEv@Base 0.4c
 _ZN5boost9algorithm6detail17find_format_storeIN9__gnu_cxx17__normal_iteratorIPcSsEENS1_13const_formatFINS_14iterator_rangeIPKcEEEESB_EC1ERKNS8_IS6_EERKSB_RKSC_@Base 0.4c
 _ZN5boost9algorithm6detail17find_format_storeIN9__gnu_cxx17__normal_iteratorIPcSsEENS1_13const_formatFINS_14iterator_rangeIPKcEEEESB_EaSINS8_IS6_EEEERSD_T_@Base 0.4c
 _ZN5boost9algorithm6detail17find_format_storeIN9__gnu_cxx17__normal_iteratorIPcSsEENS1_13empty_formatFIcEENS1_15empty_containerIcEEE13format_resultEv@Base 0.4c
 _ZN5boost9algorithm6detail17find_format_storeIN9__gnu_cxx17__normal_iteratorIPcSsEENS1_13empty_formatFIcEENS1_15empty_containerIcEEEC1ERKNS_14iterator_rangeIS6_EERKSA_RKS8_@Base 0.4c
 _ZN5boost9algorithm6detail17find_format_storeIN9__gnu_cxx17__normal_iteratorIPcSsEENS1_13empty_formatFIcEENS1_15empty_containerIcEEEaSINS_14iterator_rangeIS6_EEEERSB_T_@Base 0.4c
 _ZN5boost9algorithm6detail17move_from_storageISt5dequeIcSaIcEEN9__gnu_cxx17__normal_iteratorIPcSsEEEET0_RT_SA_SA_@Base 0.4c
 _ZN5boost9algorithm6detail18find_iterator_baseIPKcEC2ERKS5_@Base 0.4c
 _ZN5boost9algorithm6detail18find_iterator_baseIPKcEC2Ev@Base 0.4c
 _ZN5boost9algorithm6detail18find_iterator_baseIPKcEC2INS1_13token_finderFINS1_10is_any_ofFIcEEEEEET_i@Base 0.4c
 _ZN5boost9algorithm6detail18find_iterator_baseIPKcED2Ev@Base 0.4c
 _ZN5boost9algorithm6detail20find_format_all_implISsNS1_13first_finderFIN9__gnu_cxx17__normal_iteratorIPKcSsEENS0_8is_equalEEENS1_13empty_formatFIcEENS_14iterator_rangeINS5_IPcSsEEEEEEvRT_T0_T1_T2_@Base 0.4c
 _ZN5boost9algorithm6detail20find_format_all_implISsNS1_13first_finderFIPKcNS0_8is_equalEEENS1_13const_formatFINS_14iterator_rangeIN9__gnu_cxx17__normal_iteratorIS5_SsEEEEEENS9_INSB_IPcSsEEEEEEvRT_T0_T1_T2_@Base 0.4c
 _ZN5boost9algorithm6detail20find_format_all_implISsNS1_13first_finderFIPKcNS0_8is_equalEEENS1_13const_formatFINS_14iterator_rangeIS5_EEEENS9_IN9__gnu_cxx17__normal_iteratorIPcSsEEEEEEvRT_T0_T1_T2_@Base 0.4c
 _ZN5boost9algorithm6detail20find_format_all_implISsNS1_13first_finderFIPKcNS0_8is_equalEEENS1_13empty_formatFIcEENS_14iterator_rangeIN9__gnu_cxx17__normal_iteratorIPcSsEEEEEEvRT_T0_T1_T2_@Base 0.4c
 _ZN5boost9algorithm6detail21find_format_all_impl2ISsNS1_13first_finderFIN9__gnu_cxx17__normal_iteratorIPKcSsEENS0_8is_equalEEENS1_13empty_formatFIcEENS_14iterator_rangeINS5_IPcSsEEEENS1_15empty_containerIcEEEEvRT_T0_T1_T2_T3_@Base 0.4c
 _ZN5boost9algorithm6detail21find_format_all_impl2ISsNS1_13first_finderFIPKcNS0_8is_equalEEENS1_13const_formatFINS_14iterator_rangeIN9__gnu_cxx17__normal_iteratorIS5_SsEEEEEENS9_INSB_IPcSsEEEESD_EEvRT_T0_T1_T2_T3_@Base 0.4c
 _ZN5boost9algorithm6detail21find_format_all_impl2ISsNS1_13first_finderFIPKcNS0_8is_equalEEENS1_13const_formatFINS_14iterator_rangeIS5_EEEENS9_IN9__gnu_cxx17__normal_iteratorIPcSsEEEESA_EEvRT_T0_T1_T2_T3_@Base 0.4c
 _ZN5boost9algorithm6detail21find_format_all_impl2ISsNS1_13first_finderFIPKcNS0_8is_equalEEENS1_13empty_formatFIcEENS_14iterator_rangeIN9__gnu_cxx17__normal_iteratorIPcSsEEEENS1_15empty_containerIcEEEEvRT_T0_T1_T2_T3_@Base 0.4c
 _ZN5boost9algorithm6detail22process_segment_helperILb0EEclISt5dequeIcSaIcEESsN9__gnu_cxx17__normal_iteratorIPcSsEEEET1_RT_RT0_SC_SC_SC_@Base 0.4c
 _ZN5boost9algorithm6detail5eraseISsEENT_8iteratorERS3_S4_S4_@Base 0.4c
 _ZN5boost9algorithm6detail6insertISsSt15_Deque_iteratorIcRcPcEEEvRT_NS7_8iteratorET0_SA_@Base 0.4c
 _ZN5boost9algorithm9erase_allISsPKcEEvRT_RKT0_@Base 0.4c
 _ZN5boost9algorithm9erase_allISsSsEEvRT_RKT0_@Base 0.4c
 _ZN5boost9algorithm9is_any_ofIA2_cEENS0_6detail10is_any_ofFINS_11range_valueIT_E4typeEEERKS6_@Base 0.4c
 _ZN5boost9date_time10date_facetINS_9gregorian4dateEcSt19ostreambuf_iteratorIcSt11char_traitsIcEEE14set_iso_formatEv@Base 0.4c
 _ZN5boost9date_time10date_facetINS_9gregorian4dateEcSt19ostreambuf_iteratorIcSt11char_traitsIcEEE17long_month_formatE@Base 0.4c
 _ZN5boost9date_time10date_facetINS_9gregorian4dateEcSt19ostreambuf_iteratorIcSt11char_traitsIcEEE18short_month_formatE@Base 0.4c
 _ZN5boost9date_time10date_facetINS_9gregorian4dateEcSt19ostreambuf_iteratorIcSt11char_traitsIcEEE19long_weekday_formatE@Base 0.4c
 _ZN5boost9date_time10date_facetINS_9gregorian4dateEcSt19ostreambuf_iteratorIcSt11char_traitsIcEEE20iso_format_specifierE@Base 0.4c
 _ZN5boost9date_time10date_facetINS_9gregorian4dateEcSt19ostreambuf_iteratorIcSt11char_traitsIcEEE20short_weekday_formatE@Base 0.4c
 _ZN5boost9date_time10date_facetINS_9gregorian4dateEcSt19ostreambuf_iteratorIcSt11char_traitsIcEEE23set_iso_extended_formatEv@Base 0.4c
 _ZN5boost9date_time10date_facetINS_9gregorian4dateEcSt19ostreambuf_iteratorIcSt11char_traitsIcEEE29iso_format_extended_specifierE@Base 0.4c
 _ZN5boost9date_time10date_facetINS_9gregorian4dateEcSt19ostreambuf_iteratorIcSt11char_traitsIcEEEC2EPKcNS0_16period_formatterIcS7_EENS0_24special_values_formatterIcS7_EENS0_24date_generator_formatterIS3_cS7_EEj@Base 0.4c
 _ZN5boost9date_time10date_facetINS_9gregorian4dateEcSt19ostreambuf_iteratorIcSt11char_traitsIcEEED0Ev@Base 0.4c
 _ZN5boost9date_time10date_facetINS_9gregorian4dateEcSt19ostreambuf_iteratorIcSt11char_traitsIcEEED1Ev@Base 0.4c
 _ZN5boost9date_time10date_facetINS_9gregorian4dateEcSt19ostreambuf_iteratorIcSt11char_traitsIcEEED2Ev@Base 0.4c
 _ZN5boost9date_time10time_facetINS_10posix_time5ptimeEcSt19ostreambuf_iteratorIcSt11char_traitsIcEEE12hours_formatE@Base 0.4c
 _ZN5boost9date_time10time_facetINS_10posix_time5ptimeEcSt19ostreambuf_iteratorIcSt11char_traitsIcEEE13negative_signE@Base 0.4c
 _ZN5boost9date_time10time_facetINS_10posix_time5ptimeEcSt19ostreambuf_iteratorIcSt11char_traitsIcEEE13positive_signE@Base 0.4c
 _ZN5boost9date_time10time_facetINS_10posix_time5ptimeEcSt19ostreambuf_iteratorIcSt11char_traitsIcEEE14seconds_formatE@Base 0.4c
 _ZN5boost9date_time10time_facetINS_10posix_time5ptimeEcSt19ostreambuf_iteratorIcSt11char_traitsIcEEE14set_iso_formatEv@Base 0.4c
 _ZN5boost9date_time10time_facetINS_10posix_time5ptimeEcSt19ostreambuf_iteratorIcSt11char_traitsIcEEE15hours_as_stringERKNS2_13time_durationEi@Base 0.4c
 _ZN5boost9date_time10time_facetINS_10posix_time5ptimeEcSt19ostreambuf_iteratorIcSt11char_traitsIcEEE15zone_iso_formatE@Base 0.4c
 _ZN5boost9date_time10time_facetINS_10posix_time5ptimeEcSt19ostreambuf_iteratorIcSt11char_traitsIcEEE16zone_name_formatE@Base 0.4c
 _ZN5boost9date_time10time_facetINS_10posix_time5ptimeEcSt19ostreambuf_iteratorIcSt11char_traitsIcEEE18integral_as_stringIiEESsT_i@Base 0.4c
 _ZN5boost9date_time10time_facetINS_10posix_time5ptimeEcSt19ostreambuf_iteratorIcSt11char_traitsIcEEE18integral_as_stringIxEESsT_i@Base 0.4c
 _ZN5boost9date_time10time_facetINS_10posix_time5ptimeEcSt19ostreambuf_iteratorIcSt11char_traitsIcEEE18zone_abbrev_formatE@Base 0.4c
 _ZN5boost9date_time10time_facetINS_10posix_time5ptimeEcSt19ostreambuf_iteratorIcSt11char_traitsIcEEE19default_time_formatE@Base 0.4c
 _ZN5boost9date_time10time_facetINS_10posix_time5ptimeEcSt19ostreambuf_iteratorIcSt11char_traitsIcEEE20duration_sign_alwaysE@Base 0.4c
 _ZN5boost9date_time10time_facetINS_10posix_time5ptimeEcSt19ostreambuf_iteratorIcSt11char_traitsIcEEE23set_iso_extended_formatEv@Base 0.4c
 _ZN5boost9date_time10time_facetINS_10posix_time5ptimeEcSt19ostreambuf_iteratorIcSt11char_traitsIcEEE24posix_zone_string_formatE@Base 0.4c
 _ZN5boost9date_time10time_facetINS_10posix_time5ptimeEcSt19ostreambuf_iteratorIcSt11char_traitsIcEEE24zone_iso_extended_formatE@Base 0.4c
 _ZN5boost9date_time10time_facetINS_10posix_time5ptimeEcSt19ostreambuf_iteratorIcSt11char_traitsIcEEE25fractional_seconds_formatE@Base 0.4c
 _ZN5boost9date_time10time_facetINS_10posix_time5ptimeEcSt19ostreambuf_iteratorIcSt11char_traitsIcEEE25iso_time_format_specifierE@Base 0.4c
 _ZN5boost9date_time10time_facetINS_10posix_time5ptimeEcSt19ostreambuf_iteratorIcSt11char_traitsIcEEE25unrestricted_hours_formatE@Base 0.4c
 _ZN5boost9date_time10time_facetINS_10posix_time5ptimeEcSt19ostreambuf_iteratorIcSt11char_traitsIcEEE27duration_sign_negative_onlyE@Base 0.4c
 _ZN5boost9date_time10time_facetINS_10posix_time5ptimeEcSt19ostreambuf_iteratorIcSt11char_traitsIcEEE28default_time_duration_formatE@Base 0.4c
 _ZN5boost9date_time10time_facetINS_10posix_time5ptimeEcSt19ostreambuf_iteratorIcSt11char_traitsIcEEE28fractional_seconds_as_stringERKNS2_13time_durationEb@Base 0.4c
 _ZN5boost9date_time10time_facetINS_10posix_time5ptimeEcSt19ostreambuf_iteratorIcSt11char_traitsIcEEE2idE@Base 0.4c
 _ZN5boost9date_time10time_facetINS_10posix_time5ptimeEcSt19ostreambuf_iteratorIcSt11char_traitsIcEEE33fractional_seconds_or_none_formatE@Base 0.4c
 _ZN5boost9date_time10time_facetINS_10posix_time5ptimeEcSt19ostreambuf_iteratorIcSt11char_traitsIcEEE34iso_time_format_extended_specifierE@Base 0.4c
 _ZN5boost9date_time10time_facetINS_10posix_time5ptimeEcSt19ostreambuf_iteratorIcSt11char_traitsIcEEE38seconds_with_fractional_seconds_formatE@Base 0.4c
 _ZN5boost9date_time10time_facetINS_10posix_time5ptimeEcSt19ostreambuf_iteratorIcSt11char_traitsIcEEEC1Ej@Base 0.4c
 _ZN5boost9date_time10time_facetINS_10posix_time5ptimeEcSt19ostreambuf_iteratorIcSt11char_traitsIcEEED0Ev@Base 0.4c
 _ZN5boost9date_time10time_facetINS_10posix_time5ptimeEcSt19ostreambuf_iteratorIcSt11char_traitsIcEEED1Ev@Base 0.4c
 _ZN5boost9date_time11int_adapterIlEC1El@Base 0.4c
 _ZN5boost9date_time11int_adapterImE10is_neg_infEm@Base 0.4c
 _ZN5boost9date_time11int_adapterImE10is_pos_infEm@Base 0.4c
 _ZN5boost9date_time11int_adapterImE10to_specialEm@Base 0.4c
 _ZN5boost9date_time11int_adapterImE12from_specialENS0_14special_valuesE@Base 0.4c
 _ZN5boost9date_time11int_adapterImE12neg_infinityEv@Base 0.4c
 _ZN5boost9date_time11int_adapterImE12not_a_numberEv@Base 0.4c
 _ZN5boost9date_time11int_adapterImE12pos_infinityEv@Base 0.4c
 _ZN5boost9date_time11int_adapterImE15is_not_a_numberEm@Base 0.4c
 _ZN5boost9date_time11int_adapterImE3maxEv@Base 0.4c
 _ZN5boost9date_time11int_adapterImE3minEv@Base 0.4c
 _ZN5boost9date_time11int_adapterImE6is_infEm@Base 0.4c
 _ZN5boost9date_time11int_adapterImEC1Em@Base 0.4c
 _ZN5boost9date_time11int_adapterIxE10is_neg_infEx@Base 0.4c
 _ZN5boost9date_time11int_adapterIxE10is_pos_infEx@Base 0.4c
 _ZN5boost9date_time11int_adapterIxE10to_specialEx@Base 0.4c
 _ZN5boost9date_time11int_adapterIxE12from_specialENS0_14special_valuesE@Base 0.4c
 _ZN5boost9date_time11int_adapterIxE12neg_infinityEv@Base 0.4c
 _ZN5boost9date_time11int_adapterIxE12not_a_numberEv@Base 0.4c
 _ZN5boost9date_time11int_adapterIxE12pos_infinityEv@Base 0.4c
 _ZN5boost9date_time11int_adapterIxE15is_not_a_numberEx@Base 0.4c
 _ZN5boost9date_time11int_adapterIxE3maxEv@Base 0.4c
 _ZN5boost9date_time11int_adapterIxE3minEv@Base 0.4c
 _ZN5boost9date_time11int_adapterIxEC1Ex@Base 0.4c
 _ZN5boost9date_time12time_formatsIcE12hours_formatE@Base 0.4c
 _ZN5boost9date_time12time_formatsIcE13negative_signE@Base 0.4c
 _ZN5boost9date_time12time_formatsIcE13positive_signE@Base 0.4c
 _ZN5boost9date_time12time_formatsIcE14seconds_formatE@Base 0.4c
 _ZN5boost9date_time12time_formatsIcE15zone_iso_formatE@Base 0.4c
 _ZN5boost9date_time12time_formatsIcE16zone_name_formatE@Base 0.4c
 _ZN5boost9date_time12time_formatsIcE18zone_abbrev_formatE@Base 0.4c
 _ZN5boost9date_time12time_formatsIcE19default_time_formatE@Base 0.4c
 _ZN5boost9date_time12time_formatsIcE20duration_sign_alwaysE@Base 0.4c
 _ZN5boost9date_time12time_formatsIcE24posix_zone_string_formatE@Base 0.4c
 _ZN5boost9date_time12time_formatsIcE24zone_iso_extended_formatE@Base 0.4c
 _ZN5boost9date_time12time_formatsIcE25fractional_seconds_formatE@Base 0.4c
 _ZN5boost9date_time12time_formatsIcE25iso_time_format_specifierE@Base 0.4c
 _ZN5boost9date_time12time_formatsIcE25unrestricted_hours_formatE@Base 0.4c
 _ZN5boost9date_time12time_formatsIcE27duration_sign_negative_onlyE@Base 0.4c
 _ZN5boost9date_time12time_formatsIcE28default_time_duration_formatE@Base 0.4c
 _ZN5boost9date_time12time_formatsIcE33fractional_seconds_or_none_formatE@Base 0.4c
 _ZN5boost9date_time12time_formatsIcE34iso_time_format_extended_specifierE@Base 0.4c
 _ZN5boost9date_time12time_formatsIcE38seconds_with_fractional_seconds_formatE@Base 0.4c
 _ZN5boost9date_time13date_durationINS0_23duration_traits_adaptedEEC2ENS0_11int_adapterIlEE@Base 0.4c
 _ZN5boost9date_time13time_durationINS_10posix_time13time_durationENS0_22time_resolution_traitsINS0_37time_resolution_traits_adapted64_implELNS0_16time_resolutionsE5ELx1000000ELt6EiEEE16ticks_per_secondEv@Base 0.4c
 _ZN5boost9date_time13time_durationINS_10posix_time13time_durationENS0_22time_resolution_traitsINS0_37time_resolution_traits_adapted64_implELNS0_16time_resolutionsE5ELx1000000ELt6EiEEE21num_fractional_digitsEv@Base 0.4c
 _ZN5boost9date_time13time_durationINS_10posix_time13time_durationENS0_22time_resolution_traitsINS0_37time_resolution_traits_adapted64_implELNS0_16time_resolutionsE5ELx1000000ELt6EiEEE4unitEv@Base 0.4c
 _ZN5boost9date_time13time_durationINS_10posix_time13time_durationENS0_22time_resolution_traitsINS0_37time_resolution_traits_adapted64_implELNS0_16time_resolutionsE5ELx1000000ELt6EiEEEC2ENS0_14special_valuesE@Base 0.4c
 _ZN5boost9date_time13time_durationINS_10posix_time13time_durationENS0_22time_resolution_traitsINS0_37time_resolution_traits_adapted64_implELNS0_16time_resolutionsE5ELx1000000ELt6EiEEEC2ERKS8_@Base 0.4c
 _ZN5boost9date_time13time_durationINS_10posix_time13time_durationENS0_22time_resolution_traitsINS0_37time_resolution_traits_adapted64_implELNS0_16time_resolutionsE5ELx1000000ELt6EiEEEC2Eiiix@Base 0.4c
 _ZN5boost9date_time14absolute_valueIiEET_S2_@Base 0.4c
 _ZN5boost9date_time14absolute_valueIxEET_S2_@Base 0.4c
 _ZN5boost9date_time14microsec_clockINS_10posix_time5ptimeEE11create_timeEPFP2tmPKlS6_E@Base 0.4c
 _ZN5boost9date_time14microsec_clockINS_10posix_time5ptimeEE14universal_timeEv@Base 0.4c
 _ZN5boost9date_time16counted_time_repINS_10posix_time33millisec_posix_time_system_configEE16frac_sec_per_dayEv@Base 0.4c
 _ZN5boost9date_time16counted_time_repINS_10posix_time33millisec_posix_time_system_configEEC1ENS0_11int_adapterIxEE@Base 0.4c
 _ZN5boost9date_time16counted_time_repINS_10posix_time33millisec_posix_time_system_configEEC1ERKNS_9gregorian4dateERKNS2_13time_durationE@Base 0.4c
 _ZN5boost9date_time16counted_time_repINS_10posix_time33millisec_posix_time_system_configEEC1Ex@Base 0.4c
 _ZN5boost9date_time16period_formatterIcSt19ostreambuf_iteratorIcSt11char_traitsIcEEE24default_period_separatorE@Base 0.4c
 _ZN5boost9date_time16period_formatterIcSt19ostreambuf_iteratorIcSt11char_traitsIcEEE30default_period_start_delimeterE@Base 0.4c
 _ZN5boost9date_time16period_formatterIcSt19ostreambuf_iteratorIcSt11char_traitsIcEEE39default_period_open_range_end_delimeterE@Base 0.4c
 _ZN5boost9date_time16period_formatterIcSt19ostreambuf_iteratorIcSt11char_traitsIcEEE41default_period_closed_range_end_delimeterE@Base 0.4c
 _ZN5boost9date_time16period_formatterIcSt19ostreambuf_iteratorIcSt11char_traitsIcEEEC1ENS6_21range_display_optionsEPKcS9_S9_S9_@Base 0.4c
 _ZN5boost9date_time16period_formatterIcSt19ostreambuf_iteratorIcSt11char_traitsIcEEEC1ERKS6_@Base 0.4c
 _ZN5boost9date_time16period_formatterIcSt19ostreambuf_iteratorIcSt11char_traitsIcEEED1Ev@Base 0.4c
 _ZN5boost9date_time19counted_time_systemINS0_16counted_time_repINS_10posix_time33millisec_posix_time_system_configEEEE10unused_varINS0_9dst_flagsEEEvRKT_@Base 0.4c
 _ZN5boost9date_time19counted_time_systemINS0_16counted_time_repINS_10posix_time33millisec_posix_time_system_configEEEE12get_time_repERKNS_9gregorian4dateERKNS3_13time_durationENS0_9dst_flagsE@Base 0.4c
 _ZN5boost9date_time19counted_time_systemINS0_16counted_time_repINS_10posix_time33millisec_posix_time_system_configEEEE14subtract_timesERKS5_S8_@Base 0.4c
 _ZN5boost9date_time19counted_time_systemINS0_16counted_time_repINS_10posix_time33millisec_posix_time_system_configEEEE15get_time_of_dayERKS5_@Base 0.4c
 _ZN5boost9date_time19counted_time_systemINS0_16counted_time_repINS_10posix_time33millisec_posix_time_system_configEEEE17add_time_durationERKS5_NS3_13time_durationE@Base 0.4c
 _ZN5boost9date_time19counted_time_systemINS0_16counted_time_repINS_10posix_time33millisec_posix_time_system_configEEEE22subtract_time_durationERKS5_RKNS3_13time_durationE@Base 0.4c
 _ZN5boost9date_time19counted_time_systemINS0_16counted_time_repINS_10posix_time33millisec_posix_time_system_configEEEE7is_lessERKS5_S8_@Base 0.4c
 _ZN5boost9date_time19counted_time_systemINS0_16counted_time_repINS_10posix_time33millisec_posix_time_system_configEEEE8get_dateERKS5_@Base 0.4c
 _ZN5boost9date_time19counted_time_systemINS0_16counted_time_repINS_10posix_time33millisec_posix_time_system_configEEEE9zone_nameERKS5_@Base 0.4c
 _ZN5boost9date_time19year_month_day_baseINS_9gregorian9greg_yearENS2_10greg_monthENS2_8greg_dayEEC1ES3_S4_S5_@Base 0.4c
 _ZN5boost9date_time22time_resolution_traitsINS0_37time_resolution_traits_adapted64_implELNS0_16time_resolutionsE5ELx1000000ELt6EiE10is_adaptedEv@Base 0.4c
 _ZN5boost9date_time22time_resolution_traitsINS0_37time_resolution_traits_adapted64_implELNS0_16time_resolutionsE5ELx1000000ELt6EiE10res_adjustEv@Base 0.4c
 _ZN5boost9date_time22time_resolution_traitsINS0_37time_resolution_traits_adapted64_implELNS0_16time_resolutionsE5ELx1000000ELt6EiE13to_tick_countEiiix@Base 0.4c
 _ZN5boost9date_time22time_resolution_traitsINS0_37time_resolution_traits_adapted64_implELNS0_16time_resolutionsE5ELx1000000ELt6EiE21num_fractional_digitsEv@Base 0.4c
 _ZN5boost9date_time22time_resolution_traitsINS0_37time_resolution_traits_adapted64_implELNS0_16time_resolutionsE5ELx1000000ELt6EiE9as_numberENS0_11int_adapterIxEE@Base 0.4c
 _ZN5boost9date_time23duration_traits_adapted9as_numberENS0_11int_adapterIlEE@Base 0.4c
 _ZN5boost9date_time23gregorian_calendar_baseINS0_19year_month_day_baseINS_9gregorian9greg_yearENS3_10greg_monthENS3_8greg_dayEEEmE10day_numberERKS7_@Base 0.4c
 _ZN5boost9date_time23gregorian_calendar_baseINS0_19year_month_day_baseINS_9gregorian9greg_yearENS3_10greg_monthENS3_8greg_dayEEEmE11day_of_weekERKS7_@Base 0.4c
 _ZN5boost9date_time23gregorian_calendar_baseINS0_19year_month_day_baseINS_9gregorian9greg_yearENS3_10greg_monthENS3_8greg_dayEEEmE12is_leap_yearES4_@Base 0.4c
 _ZN5boost9date_time23gregorian_calendar_baseINS0_19year_month_day_baseINS_9gregorian9greg_yearENS3_10greg_monthENS3_8greg_dayEEEmE15from_day_numberEm@Base 0.4c
 _ZN5boost9date_time23gregorian_calendar_baseINS0_19year_month_day_baseINS_9gregorian9greg_yearENS3_10greg_monthENS3_8greg_dayEEEmE16end_of_month_dayES4_S5_@Base 0.4c
 _ZN5boost9date_time24date_generator_formatterINS_9gregorian4dateEcSt19ostreambuf_iteratorIcSt11char_traitsIcEEE11last_stringE@Base 0.4c
 _ZN5boost9date_time24date_generator_formatterINS_9gregorian4dateEcSt19ostreambuf_iteratorIcSt11char_traitsIcEEE12after_stringE@Base 0.4c
 _ZN5boost9date_time24date_generator_formatterINS_9gregorian4dateEcSt19ostreambuf_iteratorIcSt11char_traitsIcEEE12fifth_stringE@Base 0.4c
 _ZN5boost9date_time24date_generator_formatterINS_9gregorian4dateEcSt19ostreambuf_iteratorIcSt11char_traitsIcEEE12first_stringE@Base 0.4c
 _ZN5boost9date_time24date_generator_formatterINS_9gregorian4dateEcSt19ostreambuf_iteratorIcSt11char_traitsIcEEE12third_stringE@Base 0.4c
 _ZN5boost9date_time24date_generator_formatterINS_9gregorian4dateEcSt19ostreambuf_iteratorIcSt11char_traitsIcEEE13before_stringE@Base 0.4c
 _ZN5boost9date_time24date_generator_formatterINS_9gregorian4dateEcSt19ostreambuf_iteratorIcSt11char_traitsIcEEE13fourth_stringE@Base 0.4c
 _ZN5boost9date_time24date_generator_formatterINS_9gregorian4dateEcSt19ostreambuf_iteratorIcSt11char_traitsIcEEE13second_stringE@Base 0.4c
 _ZN5boost9date_time24date_generator_formatterINS_9gregorian4dateEcSt19ostreambuf_iteratorIcSt11char_traitsIcEEE9of_stringE@Base 0.4c
 _ZN5boost9date_time24date_generator_formatterINS_9gregorian4dateEcSt19ostreambuf_iteratorIcSt11char_traitsIcEEEC1ERKS8_@Base 0.4c
 _ZN5boost9date_time24date_generator_formatterINS_9gregorian4dateEcSt19ostreambuf_iteratorIcSt11char_traitsIcEEEC1Ev@Base 0.4c
 _ZN5boost9date_time24date_generator_formatterINS_9gregorian4dateEcSt19ostreambuf_iteratorIcSt11char_traitsIcEEED1Ev@Base 0.4c
 _ZN5boost9date_time24special_values_formatterIcSt19ostreambuf_iteratorIcSt11char_traitsIcEEE27default_special_value_namesE@Base 0.4c
 _ZN5boost9date_time24special_values_formatterIcSt19ostreambuf_iteratorIcSt11char_traitsIcEEEC1ERKS6_@Base 0.4c
 _ZN5boost9date_time24special_values_formatterIcSt19ostreambuf_iteratorIcSt11char_traitsIcEEEC1Ev@Base 0.4c
 _ZN5boost9date_time24special_values_formatterIcSt19ostreambuf_iteratorIcSt11char_traitsIcEEED1Ev@Base 0.4c
 _ZN5boost9date_time37time_resolution_traits_adapted64_impl10is_adaptedEv@Base 0.4c
 _ZN5boost9date_time37time_resolution_traits_adapted64_impl9as_numberENS0_11int_adapterIxEE@Base 0.4c
 _ZN5boost9date_time4dateINS_9gregorian4dateENS2_18gregorian_calendarENS2_13date_durationEEC2ENS0_11int_adapterImEE@Base 0.4c
 _ZN5boost9date_time4dateINS_9gregorian4dateENS2_18gregorian_calendarENS2_13date_durationEEC2ENS2_9greg_yearENS2_10greg_monthENS2_8greg_dayE@Base 0.4c
 _ZN5boost9date_time4dateINS_9gregorian4dateENS2_18gregorian_calendarENS2_13date_durationEEC2ERKNS0_19year_month_day_baseINS2_9greg_yearENS2_10greg_monthENS2_8greg_dayEEE@Base 0.4c
 _ZN5boost9date_time6c_time6gmtimeEPKlP2tm@Base 0.4c
 _ZN5boost9date_time6periodINS_10posix_time5ptimeENS2_13time_durationEEC1ES3_S3_@Base 0.4c
 _ZN5boost9date_time9base_timeINS_10posix_time5ptimeENS0_19counted_time_systemINS0_16counted_time_repINS2_33millisec_posix_time_system_configEEEEEEC2ERKNS_9gregorian4dateERKNS2_13time_durationENS0_9dst_flagsE@Base 0.4c
 _ZN5boost9date_time9base_timeINS_10posix_time5ptimeENS0_19counted_time_systemINS0_16counted_time_repINS2_33millisec_posix_time_system_configEEEEEEC2ERKS7_@Base 0.4c
 _ZN5boost9exceptionC2ERKS0_@Base 0.4c
 _ZN5boost9exceptionC2Ev@Base 0.4c
 _ZN5boost9exceptionD2Ev@Base 0.4c
 _ZN5boost9exceptionaSERKS0_@Base 0.4c
 _ZN5boost9function2INS_14iterator_rangeIPKcEES3_S3_E13assign_to_ownERKS5_@Base 0.4c
 _ZN5boost9function2INS_14iterator_rangeIPKcEES3_S3_E5clearEv@Base 0.4c
 _ZN5boost9function2INS_14iterator_rangeIPKcEES3_S3_E9assign_toINS_9algorithm6detail13token_finderFINS8_10is_any_ofFIcEEEEEEvT_@Base 0.4c
 _ZN5boost9function2INS_14iterator_rangeIPKcEES3_S3_EC1ERKS5_@Base 0.4c
 _ZN5boost9function2INS_14iterator_rangeIPKcEES3_S3_EC1Ev@Base 0.4c
 _ZN5boost9function2INS_14iterator_rangeIPKcEES3_S3_EC1INS_9algorithm6detail13token_finderFINS8_10is_any_ofFIcEEEEEET_NS_11enable_if_cIXsrNS_11type_traits7ice_notIXsrNS_11is_integralISD_EE5valueEEE5valueEiE4typeE@Base 0.4c
 _ZN5boost9function2INS_14iterator_rangeIPKcEES3_S3_ED1Ev@Base 0.4c
 _ZN5boost9gregorian10greg_monthC1Et@Base 0.4c
 _ZN5boost9gregorian11bad_weekdayC1Ev@Base 0.4c
 _ZN5boost9gregorian11bad_weekdayC2ERKS1_@Base 0.4c
 _ZN5boost9gregorian11bad_weekdayD0Ev@Base 0.4c
 _ZN5boost9gregorian11bad_weekdayD1Ev@Base 0.4c
 _ZN5boost9gregorian11bad_weekdayD2Ev@Base 0.4c
 _ZN5boost9gregorian12greg_weekdayC1Et@Base 0.4c
 _ZN5boost9gregorian13date_durationC1ENS_9date_time11int_adapterIlEE@Base 0.4c
 _ZN5boost9gregorian15bad_day_of_yearC1Ev@Base 0.4c
 _ZN5boost9gregorian15bad_day_of_yearC2ERKS1_@Base 0.4c
 _ZN5boost9gregorian15bad_day_of_yearD0Ev@Base 0.4c
 _ZN5boost9gregorian15bad_day_of_yearD1Ev@Base 0.4c
 _ZN5boost9gregorian15bad_day_of_yearD2Ev@Base 0.4c
 _ZN5boost9gregorian16bad_day_of_monthC1ERKSs@Base 0.4c
 _ZN5boost9gregorian16bad_day_of_monthC1Ev@Base 0.4c
 _ZN5boost9gregorian16bad_day_of_monthC2ERKS1_@Base 0.4c
 _ZN5boost9gregorian16bad_day_of_monthD0Ev@Base 0.4c
 _ZN5boost9gregorian16bad_day_of_monthD1Ev@Base 0.4c
 _ZN5boost9gregorian16bad_day_of_monthD2Ev@Base 0.4c
 _ZN5boost9gregorian4dateC1ENS0_9greg_yearENS0_10greg_monthENS0_8greg_dayE@Base 0.4c
 _ZN5boost9gregorian4dateC1ENS_9date_time14special_valuesE@Base 0.4c
 _ZN5boost9gregorian4dateC1ERKNS_9date_time19year_month_day_baseINS0_9greg_yearENS0_10greg_monthENS0_8greg_dayEEE@Base 0.4c
 _ZN5boost9gregorian5to_tmERKNS0_4dateE@Base 0.4c
 _ZN5boost9gregorian8bad_yearC1Ev@Base 0.4c
 _ZN5boost9gregorian8bad_yearC2ERKS1_@Base 0.4c
 _ZN5boost9gregorian8bad_yearD0Ev@Base 0.4c
 _ZN5boost9gregorian8bad_yearD1Ev@Base 0.4c
 _ZN5boost9gregorian8bad_yearD2Ev@Base 0.4c
 _ZN5boost9gregorian8greg_dayC1Et@Base 0.4c
 _ZN5boost9gregorian9bad_monthC1Ev@Base 0.4c
 _ZN5boost9gregorian9bad_monthC2ERKS1_@Base 0.4c
 _ZN5boost9gregorian9bad_monthD0Ev@Base 0.4c
 _ZN5boost9gregorian9bad_monthD1Ev@Base 0.4c
 _ZN5boost9gregorian9bad_monthD2Ev@Base 0.4c
 _ZN5boost9gregorian9greg_yearC1Et@Base 0.4c
 _ZN5boosteqINS_9algorithm14split_iteratorIPKcEEKNS_14iterator_rangeIS4_EENS_21forward_traversal_tagERS8_iS5_S8_S9_SA_iEENS_6detail23enable_if_interoperableIT_T4_NS_3mpl6apply2INSB_12always_bool2ESD_SE_E4typeEE4typeERKNS_15iterator_facadeISD_T0_T1_T2_T3_EERKNSM_ISE_T5_T6_T7_T8_EE@Base 0.4c
 _ZN5boosteqIPKcS2_EEbRKNS_14iterator_rangeIT_EERKNS3_IT0_EE@Base 0.4c
 _ZN5boostlsIcSt11char_traitsIcESaIcEEERSt13basic_ostreamIT_T0_ES8_RKNS_12basic_formatIS5_S6_T1_EE@Base 0.4c
 _ZN5boostneINS_18transform_iteratorINS_9algorithm6detail20copy_iterator_rangeFISsPKcEENS2_14split_iteratorIS6_EENS_11use_defaultESA_EESsNS_21forward_traversal_tagESsiSB_SsSC_SsiEENS_6detail23enable_if_interoperableIT_T4_NS_3mpl6apply2INSD_12always_bool2ESF_SG_E4typeEE4typeERKNS_15iterator_facadeISF_T0_T1_T2_T3_EERKNSO_ISG_T5_T6_T7_T8_EE@Base 0.4c
 _ZN9__gnu_cxx13new_allocatorIN5boost2io6detail11format_itemIcSt11char_traitsIcESaIcEEEE10deallocateEPS8_j@Base 0.4c
 _ZN9__gnu_cxx13new_allocatorIN5boost2io6detail11format_itemIcSt11char_traitsIcESaIcEEEE8allocateEjPKv@Base 0.4c
 _ZN9__gnu_cxx13new_allocatorIN5boost2io6detail11format_itemIcSt11char_traitsIcESaIcEEEEC2ERKS9_@Base 0.4c
 _ZN9__gnu_cxx13new_allocatorIN5boost2io6detail11format_itemIcSt11char_traitsIcESaIcEEEEC2Ev@Base 0.4c
 _ZN9__gnu_cxx13new_allocatorIN5boost2io6detail11format_itemIcSt11char_traitsIcESaIcEEEED2Ev@Base 0.4c
 _ZN9__gnu_cxx13new_allocatorIPN3hpp5debug6OutputEE10deallocateEPS4_j@Base 0.4c
 _ZN9__gnu_cxx13new_allocatorIPN3hpp5debug6OutputEE8allocateEjPKv@Base 0.4c
 _ZN9__gnu_cxx13new_allocatorIPN3hpp5debug6OutputEE9constructEPS4_RKS4_@Base 0.4c
 _ZN9__gnu_cxx13new_allocatorIPN3hpp5debug6OutputEEC2ERKS5_@Base 0.4c
 _ZN9__gnu_cxx13new_allocatorIPN3hpp5debug6OutputEEC2Ev@Base 0.4c
 _ZN9__gnu_cxx13new_allocatorIPN3hpp5debug6OutputEED2Ev@Base 0.4c
 _ZN9__gnu_cxx13new_allocatorIPPN3hpp5debug6OutputEE10deallocateEPS5_j@Base 0.4c
 _ZN9__gnu_cxx13new_allocatorIPPN3hpp5debug6OutputEE8allocateEjPKv@Base 0.4c
 _ZN9__gnu_cxx13new_allocatorIPPN3hpp5debug6OutputEEC2Ev@Base 0.4c
 _ZN9__gnu_cxx13new_allocatorIPPN3hpp5debug6OutputEED2Ev@Base 0.4c
 _ZN9__gnu_cxx13new_allocatorIPcE10deallocateEPS1_j@Base 0.4c
 _ZN9__gnu_cxx13new_allocatorIPcE8allocateEjPKv@Base 0.4c
 _ZN9__gnu_cxx13new_allocatorIPcEC2Ev@Base 0.4c
 _ZN9__gnu_cxx13new_allocatorIPcED2Ev@Base 0.4c
 _ZN9__gnu_cxx13new_allocatorISsE10deallocateEPSsj@Base 0.4c
 _ZN9__gnu_cxx13new_allocatorISsE7destroyEPSs@Base 0.4c
 _ZN9__gnu_cxx13new_allocatorISsE8allocateEjPKv@Base 0.4c
 _ZN9__gnu_cxx13new_allocatorISsE9constructEPSsRKSs@Base 0.4c
 _ZN9__gnu_cxx13new_allocatorISsEC2ERKS1_@Base 0.4c
 _ZN9__gnu_cxx13new_allocatorISsEC2Ev@Base 0.4c
 _ZN9__gnu_cxx13new_allocatorISsED2Ev@Base 0.4c
 _ZN9__gnu_cxx13new_allocatorIcE10deallocateEPcj@Base 0.4c
 _ZN9__gnu_cxx13new_allocatorIcE7destroyEPc@Base 0.4c
 _ZN9__gnu_cxx13new_allocatorIcE8allocateEjPKv@Base 0.4c
 _ZN9__gnu_cxx13new_allocatorIcE9constructEPcRKc@Base 0.4c
 _ZN9__gnu_cxx13new_allocatorImE10deallocateEPmj@Base 0.4c
 _ZN9__gnu_cxx13new_allocatorImE8allocateEjPKv@Base 0.4c
 _ZN9__gnu_cxx13new_allocatorImEC2Ev@Base 0.4c
 _ZN9__gnu_cxx13new_allocatorImED2Ev@Base 0.4c
 _ZN9__gnu_cxx17__is_null_pointerIKcEEbPT_@Base 0.4c
 _ZN9__gnu_cxx17__is_null_pointerISt15_Deque_iteratorIcRcPcEEEbT_@Base 0.4c
 _ZN9__gnu_cxx17__normal_iteratorIPKPN3hpp5debug6OutputESt6vectorIS4_SaIS4_EEEC1ERKS6_@Base 0.4c
 _ZN9__gnu_cxx17__normal_iteratorIPKSsSt6vectorISsSaISsEEEC1ERKS2_@Base 0.4c
 _ZN9__gnu_cxx17__normal_iteratorIPKSsSt6vectorISsSaISsEEEppEv@Base 0.4c
 _ZN9__gnu_cxx17__normal_iteratorIPKcSsEC1ERKS2_@Base 0.4c
 _ZN9__gnu_cxx17__normal_iteratorIPKcSsEC1Ev@Base 0.4c
 _ZN9__gnu_cxx17__normal_iteratorIPKcSsEpLERKi@Base 0.4c
 _ZN9__gnu_cxx17__normal_iteratorIPKcSsEppEv@Base 0.4c
 _ZN9__gnu_cxx17__normal_iteratorIPN5boost2io6detail11format_itemIcSt11char_traitsIcESaIcEEESt6vectorIS8_SaIS8_EEEC1ERKS9_@Base 0.4c
 _ZN9__gnu_cxx17__normal_iteratorIPPN3hpp5debug6OutputESt6vectorIS4_SaIS4_EEEC1ERKS5_@Base 0.4c
 _ZN9__gnu_cxx17__normal_iteratorIPPN3hpp5debug6OutputESt6vectorIS4_SaIS4_EEEppEv@Base 0.4c
 _ZN9__gnu_cxx17__normal_iteratorIPSsSt6vectorISsSaISsEEEC1ERKS1_@Base 0.4c
 _ZN9__gnu_cxx17__normal_iteratorIPcSsEC1ERKS1_@Base 0.4c
 _ZN9__gnu_cxx17__normal_iteratorIPcSsEppEv@Base 0.4c
 _ZN9__gnu_cxxeqIPKcSsEEbRKNS_17__normal_iteratorIT_T0_EES8_@Base 0.4c
 _ZN9__gnu_cxxeqIPPN3hpp5debug6OutputESt6vectorIS4_SaIS4_EEEEbRKNS_17__normal_iteratorIT_T0_EESE_@Base 0.4c
 _ZN9__gnu_cxxeqIPcSsEEbRKNS_17__normal_iteratorIT_T0_EES7_@Base 0.4c
 _ZN9__gnu_cxxgeIPKcSsEEbRKNS_17__normal_iteratorIT_T0_EES8_@Base 0.4c
 _ZN9__gnu_cxxmiIPKcSsEENS_17__normal_iteratorIT_T0_E15difference_typeERKS6_S9_@Base 0.4c
 _ZN9__gnu_cxxmiIPN5boost2io6detail11format_itemIcSt11char_traitsIcESaIcEEESt6vectorIS8_SaIS8_EEEENS_17__normal_iteratorIT_T0_E15difference_typeERKSG_SJ_@Base 0.4c
 _ZN9__gnu_cxxmiIPSsSt6vectorISsSaISsEEEENS_17__normal_iteratorIT_T0_E15difference_typeERKS8_SB_@Base 0.4c
 _ZN9__gnu_cxxmiIPcSsEENS_17__normal_iteratorIT_T0_E15difference_typeERKS5_S8_@Base 0.4c
 _ZN9__gnu_cxxneIPKSsSt6vectorISsSaISsEEEEbRKNS_17__normal_iteratorIT_T0_EESB_@Base 0.4c
 _ZN9__gnu_cxxneIPKcSsEEbRKNS_17__normal_iteratorIT_T0_EES8_@Base 0.4c
 _ZN9__gnu_cxxneIPcSsEEbRKNS_17__normal_iteratorIT_T0_EES7_@Base 0.4c
 _ZNK3hpp5debug13JournalOutput11getFilenameEv@Base 0.4c
 _ZNK3hpp5debug5Timer5printERSo@Base 0.4c
 _ZNK3hpp5debug5Timer7getStopEv@Base 0.4c
 _ZNK3hpp5debug5Timer8durationEv@Base 0.4c
 _ZNK3hpp5debug5Timer8getStartEv@Base 0.4c
 _ZNK3hpp5debug7Channel5labelEv@Base 0.4c
 _ZNK3hpp9Exception4whatEv@Base 0.4c
 _ZNK3hpp9Exception5printERSo@Base 0.4c
 _ZNK5boost10filesystem10basic_pathISsNS0_11path_traitsEE11branch_pathEv@Base 0.4c
 _ZNK5boost10filesystem10basic_pathISsNS0_11path_traitsEE11file_stringEv@Base 0.4c
 _ZNK5boost10filesystem10basic_pathISsNS0_11path_traitsEE11parent_pathEv@Base 0.4c
 _ZNK5boost10filesystem10basic_pathISsNS0_11path_traitsEE16directory_stringEv@Base 0.4c
 _ZNK5boost10filesystem10basic_pathISsNS0_11path_traitsEE20external_file_stringEv@Base 0.4c
 _ZNK5boost10filesystem10basic_pathISsNS0_11path_traitsEE25external_directory_stringEv@Base 0.4c
 _ZNK5boost10filesystem10basic_pathISsNS0_11path_traitsEE5emptyEv@Base 0.4c
 _ZNK5boost10filesystem10basic_pathISsNS0_11path_traitsEE6stringEv@Base 0.4c
 _ZNK5boost10filesystem11file_status4typeEv@Base 0.4c
 _ZNK5boost10filesystem22basic_filesystem_errorINS0_10basic_pathISsNS0_11path_traitsEEEE4whatEv@Base 0.4c
 _ZNK5boost10shared_ptrINS_10filesystem22basic_filesystem_errorINS1_10basic_pathISsNS1_11path_traitsEEEE5m_impEE3getEv@Base 0.4c
 _ZNK5boost10shared_ptrINS_10filesystem22basic_filesystem_errorINS1_10basic_pathISsNS1_11path_traitsEEEE5m_impEEptEv@Base 0.4c
 _ZNK5boost10shared_ptrINS_2io18basic_altstringbufIcSt11char_traitsIcESaIcEEEE3getEv@Base 0.4c
 _ZNK5boost12basic_formatIcSt11char_traitsIcESaIcEE10exceptionsEv@Base 0.4c
 _ZNK5boost12basic_formatIcSt11char_traitsIcESaIcEE3strEv@Base 0.4c
 _ZNK5boost12basic_formatIcSt11char_traitsIcESaIcEE4sizeEv@Base 0.4c
 _ZNK5boost12basic_formatIcSt11char_traitsIcESaIcEE6getlocEv@Base 0.4c
 _ZNK5boost13assign_detail12generic_listIPN3hpp5debug6OutputEE3endEv@Base 0.4c
 _ZNK5boost13assign_detail12generic_listIPN3hpp5debug6OutputEE5beginEv@Base 0.4c
 _ZNK5boost13assign_detail12generic_listIPN3hpp5debug6OutputEEcvT_ISt6vectorIS5_SaIS5_EEEEv@Base 0.4c
 _ZNK5boost13assign_detail9converterINS0_12generic_listIPN3hpp5debug6OutputEEESt15_Deque_iteratorIS6_RS6_PS6_EE20convert_to_containerISt6vectorIS6_SaIS6_EEEET_v@Base 0.4c
 _ZNK5boost13assign_detail9converterINS0_12generic_listIPN3hpp5debug6OutputEEESt15_Deque_iteratorIS6_RS6_PS6_EE3endEv@Base 0.4c
 _ZNK5boost13assign_detail9converterINS0_12generic_listIPN3hpp5debug6OutputEEESt15_Deque_iteratorIS6_RS6_PS6_EE5beginEv@Base 0.4c
 _ZNK5boost13assign_detail9converterINS0_12generic_listIPN3hpp5debug6OutputEEESt15_Deque_iteratorIS6_RS6_PS6_EE7convertISt6vectorIS6_SaIS6_EEEET_PKSH_NS0_16default_type_tagE@Base 0.4c
 _ZNK5boost13function_base28has_trivial_copy_and_destroyEv@Base 0.4c
 _ZNK5boost13function_base5emptyEv@Base 0.4c
 _ZNK5boost14iterator_rangeIN9__gnu_cxx17__normal_iteratorIPKcSsEEE11is_singularEv@Base 0.4c
 _ZNK5boost14iterator_rangeIN9__gnu_cxx17__normal_iteratorIPKcSsEEE3endEv@Base 0.4c
 _ZNK5boost14iterator_rangeIN9__gnu_cxx17__normal_iteratorIPKcSsEEE5beginEv@Base 0.4c
 _ZNK5boost14iterator_rangeIN9__gnu_cxx17__normal_iteratorIPcSsEEE11is_singularEv@Base 0.4c
 _ZNK5boost14iterator_rangeIN9__gnu_cxx17__normal_iteratorIPcSsEEE3endEv@Base 0.4c
 _ZNK5boost14iterator_rangeIN9__gnu_cxx17__normal_iteratorIPcSsEEE5beginEv@Base 0.4c
 _ZNK5boost14iterator_rangeIN9__gnu_cxx17__normal_iteratorIPcSsEEE5emptyEv@Base 0.4c
 _ZNK5boost14iterator_rangeIN9__gnu_cxx17__normal_iteratorIPcSsEEEcvMS5_KFS4_vEEv@Base 0.4c
 _ZNK5boost14iterator_rangeIPKcE11is_singularEv@Base 0.4c
 _ZNK5boost14iterator_rangeIPKcE3endEv@Base 0.4c
 _ZNK5boost14iterator_rangeIPKcE5beginEv@Base 0.4c
 _ZNK5boost15foreach_detail_13auto_any_basecvbEv@Base 0.4c
 _ZNK5boost15iterator_facadeINS_18transform_iteratorINS_9algorithm6detail20copy_iterator_rangeFISsPKcEENS2_14split_iteratorIS6_EENS_11use_defaultESA_EESsNS_21forward_traversal_tagESsiE7derivedEv@Base 0.4c
 _ZNK5boost15iterator_facadeINS_18transform_iteratorINS_9algorithm6detail20copy_iterator_rangeFISsPKcEENS2_14split_iteratorIS6_EENS_11use_defaultESA_EESsNS_21forward_traversal_tagESsiEdeEv@Base 0.4c
 _ZNK5boost15iterator_facadeINS_9algorithm14split_iteratorIPKcEEKNS_14iterator_rangeIS4_EENS_21forward_traversal_tagERS8_iE7derivedEv@Base 0.4c
 _ZNK5boost15iterator_facadeINS_9algorithm14split_iteratorIPKcEEKNS_14iterator_rangeIS4_EENS_21forward_traversal_tagERS8_iEdeEv@Base 0.4c
 _ZNK5boost15optional_detail13optional_baseISt6localeE10get_objectEv@Base 0.4c
 _ZNK5boost15optional_detail13optional_baseISt6localeE11dereferenceEPKS2_N4mpl_5bool_ILb0EEE@Base 0.4c
 _ZNK5boost15optional_detail13optional_baseISt6localeE14is_initializedEv@Base 0.4c
 _ZNK5boost15optional_detail13optional_baseISt6localeE8get_implEv@Base 0.4c
 _ZNK5boost15optional_detail13optional_baseISt6localeE9safe_boolEv@Base 0.4c
 _ZNK5boost15optional_detail15aligned_storageISt6localeE7addressEv@Base 0.4c
 _ZNK5boost16exception_detail10clone_implINS0_19error_info_injectorINS_10filesystem22basic_filesystem_errorINS3_10basic_pathISsNS3_11path_traitsEEEEEEEE5cloneEv@Base 0.4c
 _ZNK5boost16exception_detail10clone_implINS0_19error_info_injectorINS_10filesystem22basic_filesystem_errorINS3_10basic_pathISsNS3_11path_traitsEEEEEEEE7rethrowEv@Base 0.4c
 _ZNK5boost16exception_detail10clone_implINS0_19error_info_injectorINS_17bad_function_callEEEE5cloneEv@Base 0.4c
 _ZNK5boost16exception_detail10clone_implINS0_19error_info_injectorINS_17bad_function_callEEEE7rethrowEv@Base 0.4c
 _ZNK5boost16exception_detail10clone_implINS0_19error_info_injectorINS_2io12too_few_argsEEEE5cloneEv@Base 0.4c
 _ZNK5boost16exception_detail10clone_implINS0_19error_info_injectorINS_2io12too_few_argsEEEE7rethrowEv@Base 0.4c
 _ZNK5boost16exception_detail10clone_implINS0_19error_info_injectorINS_2io13too_many_argsEEEE5cloneEv@Base 0.4c
 _ZNK5boost16exception_detail10clone_implINS0_19error_info_injectorINS_2io13too_many_argsEEEE7rethrowEv@Base 0.4c
 _ZNK5boost16exception_detail10clone_implINS0_19error_info_injectorINS_2io17bad_format_stringEEEE5cloneEv@Base 0.4c
 _ZNK5boost16exception_detail10clone_implINS0_19error_info_injectorINS_2io17bad_format_stringEEEE7rethrowEv@Base 0.4c
 _ZNK5boost16exception_detail10clone_implINS0_19error_info_injectorINS_9gregorian11bad_weekdayEEEE5cloneEv@Base 0.4c
 _ZNK5boost16exception_detail10clone_implINS0_19error_info_injectorINS_9gregorian11bad_weekdayEEEE7rethrowEv@Base 0.4c
 _ZNK5boost16exception_detail10clone_implINS0_19error_info_injectorINS_9gregorian15bad_day_of_yearEEEE5cloneEv@Base 0.4c
 _ZNK5boost16exception_detail10clone_implINS0_19error_info_injectorINS_9gregorian15bad_day_of_yearEEEE7rethrowEv@Base 0.4c
 _ZNK5boost16exception_detail10clone_implINS0_19error_info_injectorINS_9gregorian16bad_day_of_monthEEEE5cloneEv@Base 0.4c
 _ZNK5boost16exception_detail10clone_implINS0_19error_info_injectorINS_9gregorian16bad_day_of_monthEEEE7rethrowEv@Base 0.4c
 _ZNK5boost16exception_detail10clone_implINS0_19error_info_injectorINS_9gregorian8bad_yearEEEE5cloneEv@Base 0.4c
 _ZNK5boost16exception_detail10clone_implINS0_19error_info_injectorINS_9gregorian8bad_yearEEEE7rethrowEv@Base 0.4c
 _ZNK5boost16exception_detail10clone_implINS0_19error_info_injectorINS_9gregorian9bad_monthEEEE5cloneEv@Base 0.4c
 _ZNK5boost16exception_detail10clone_implINS0_19error_info_injectorINS_9gregorian9bad_monthEEEE7rethrowEv@Base 0.4c
 _ZNK5boost16exception_detail10clone_implINS0_19error_info_injectorISt12out_of_rangeEEE5cloneEv@Base 0.4c
 _ZNK5boost16exception_detail10clone_implINS0_19error_info_injectorISt12out_of_rangeEEE7rethrowEv@Base 0.4c
 _ZNK5boost16exception_detail10clone_implINS0_19error_info_injectorISt13runtime_errorEEE5cloneEv@Base 0.4c
 _ZNK5boost16exception_detail10clone_implINS0_19error_info_injectorISt13runtime_errorEEE7rethrowEv@Base 0.4c
 _ZNK5boost16iterator_adaptorINS_18transform_iteratorINS_9algorithm6detail20copy_iterator_rangeFISsPKcEENS2_14split_iteratorIS6_EENS_11use_defaultESA_EES9_SsSA_SsSA_E4baseEv@Base 0.4c
 _ZNK5boost16iterator_adaptorINS_18transform_iteratorINS_9algorithm6detail20copy_iterator_rangeFISsPKcEENS2_14split_iteratorIS6_EENS_11use_defaultESA_EES9_SsSA_SsSA_E5equalISB_S9_SsSA_SsSA_EEbRKNS0_IT_T0_T1_T2_T3_T4_EE@Base 0.4c
 _ZNK5boost18transform_iteratorINS_9algorithm6detail20copy_iterator_rangeFISsPKcEENS1_14split_iteratorIS5_EENS_11use_defaultES9_E11dereferenceEv@Base 0.4c
 _ZNK5boost2CV17constrained_valueINS0_23simple_exception_policyItLt0ELt6ENS_9gregorian11bad_weekdayEEEEcvtEv@Base 0.4c
 _ZNK5boost2CV17constrained_valueINS0_23simple_exception_policyItLt1ELt366ENS_9gregorian15bad_day_of_yearEEEEcvtEv@Base 0.4c
 _ZNK5boost2io12format_error4whatEv@Base 0.4c
 _ZNK5boost2io12too_few_args4whatEv@Base 0.4c
 _ZNK5boost2io13too_many_args4whatEv@Base 0.4c
 _ZNK5boost2io17bad_format_string4whatEv@Base 0.4c
 _ZNK5boost2io18basic_altstringbufIcSt11char_traitsIcESaIcEE6pcountEv@Base 0.4c
 _ZNK5boost2io22basic_oaltstringstreamIcSt11char_traitsIcESaIcEE5rdbufEv@Base 0.4c
 _ZNK5boost2io6detail19stream_format_stateIcSt11char_traitsIcEE8apply_onERSt9basic_iosIcS4_EPSt6locale@Base 0.4c
 _ZNK5boost6detail13addr_impl_refINS_9algorithm6detail13token_finderFINS3_10is_any_ofFIcEEEEEcvRS7_Ev@Base 0.4c
 _ZNK5boost6detail13addr_impl_refISt6vectorIPN3hpp5debug6OutputESaIS6_EEEcvRS8_Ev@Base 0.4c
 _ZNK5boost6system10error_code5valueEv@Base 0.4c
 _ZNK5boost6system10error_code7messageEv@Base 0.4c
 _ZNK5boost6system10error_codecvPFvvEEv@Base 0.4c
 _ZNK5boost6system12system_error4whatEv@Base 0.4c
 _ZNK5boost8optionalISt6localeE3getEv@Base 0.4c
 _ZNK5boost8optionalISt6localeEcvMNS_15optional_detail13optional_baseIS1_EEKFbvEEv@Base 0.4c
 _ZNK5boost9algorithm14split_iteratorIPKcE11dereferenceEv@Base 0.4c
 _ZNK5boost9algorithm14split_iteratorIPKcE3eofEv@Base 0.4c
 _ZNK5boost9algorithm14split_iteratorIPKcE5equalERKS4_@Base 0.4c
 _ZNK5boost9algorithm6detail10is_any_ofFIcEclIcEEbT_@Base 0.4c
 _ZNK5boost9algorithm6detail13const_formatFINS_14iterator_rangeIN9__gnu_cxx17__normal_iteratorIPKcSsEEEEEclINS3_INS5_IPcSsEEEEEERKS9_RKT_@Base 0.4c
 _ZNK5boost9algorithm6detail13const_formatFINS_14iterator_rangeIPKcEEEclINS3_IN9__gnu_cxx17__normal_iteratorIPcSsEEEEEERKS6_RKT_@Base 0.4c
 _ZNK5boost9algorithm6detail13empty_formatFIcEclINS_14iterator_rangeIN9__gnu_cxx17__normal_iteratorIPcSsEEEEEENS1_15empty_containerIcEERKT_@Base 0.4c
 _ZNK5boost9algorithm6detail13first_finderFIN9__gnu_cxx17__normal_iteratorIPKcSsEENS0_8is_equalEEclINS4_IPcSsEEEENS_14iterator_rangeIT_EESE_SE_@Base 0.4c
 _ZNK5boost9algorithm6detail13first_finderFIPKcNS0_8is_equalEEclIN9__gnu_cxx17__normal_iteratorIPcSsEEEENS_14iterator_rangeIT_EESD_SD_@Base 0.4c
 _ZNK5boost9algorithm6detail13token_finderFINS1_10is_any_ofFIcEEEclIPKcEENS_14iterator_rangeIT_EESA_SA_@Base 0.4c
 _ZNK5boost9algorithm6detail15empty_containerIcE3endEv@Base 0.4c
 _ZNK5boost9algorithm6detail15empty_containerIcE5beginEv@Base 0.4c
 _ZNK5boost9algorithm6detail18find_iterator_baseIPKcE7do_findES4_S4_@Base 0.4c
 _ZNK5boost9algorithm6detail18find_iterator_baseIPKcE7is_nullEv@Base 0.4c
 _ZNK5boost9algorithm6detail20copy_iterator_rangeFISsPKcEclERKNS_14iterator_rangeIS4_EE@Base 0.4c
 _ZNK5boost9algorithm8is_equalclIccEEbRKT_RKT0_@Base 0.4c
 _ZNK5boost9date_time10date_facetINS_9gregorian4dateEcSt19ostreambuf_iteratorIcSt11char_traitsIcEEE14do_put_specialES7_RSt8ios_basecNS0_14special_valuesE@Base 0.4c
 _ZNK5boost9date_time10date_facetINS_9gregorian4dateEcSt19ostreambuf_iteratorIcSt11char_traitsIcEEE9do_put_tmES7_RSt8ios_basecRK2tmSs@Base 0.4c
 _ZNK5boost9date_time10time_facetINS_10posix_time5ptimeEcSt19ostreambuf_iteratorIcSt11char_traitsIcEEE3putES7_RSt8ios_basecRKNS2_13time_durationE@Base 0.4c
 _ZNK5boost9date_time10time_facetINS_10posix_time5ptimeEcSt19ostreambuf_iteratorIcSt11char_traitsIcEEE3putES7_RSt8ios_basecRKS3_@Base 0.4c
 _ZNK5boost9date_time11int_adapterIlE9as_numberEv@Base 0.4c
 _ZNK5boost9date_time11int_adapterImE10is_specialEv@Base 0.4c
 _ZNK5boost9date_time11int_adapterImE11is_infinityEv@Base 0.4c
 _ZNK5boost9date_time11int_adapterImE6is_nanEv@Base 0.4c
 _ZNK5boost9date_time11int_adapterImE9as_numberEv@Base 0.4c
 _ZNK5boost9date_time11int_adapterImEmiImEES2_RKNS1_IT_EE@Base 0.4c
 _ZNK5boost9date_time11int_adapterIxE10as_specialEv@Base 0.4c
 _ZNK5boost9date_time11int_adapterIxE10is_specialEv@Base 0.4c
 _ZNK5boost9date_time11int_adapterIxE11is_infinityEv@Base 0.4c
 _ZNK5boost9date_time11int_adapterIxE6is_nanEv@Base 0.4c
 _ZNK5boost9date_time11int_adapterIxE7compareERKS2_@Base 0.4c
 _ZNK5boost9date_time11int_adapterIxE9as_numberEv@Base 0.4c
 _ZNK5boost9date_time11int_adapterIxEltERKi@Base 0.4c
 _ZNK5boost9date_time11int_adapterIxEmiIxEES2_RKNS1_IT_EE@Base 0.4c
 _ZNK5boost9date_time11int_adapterIxEplImEES2_RKNS1_IT_EE@Base 0.4c
 _ZNK5boost9date_time11int_adapterIxEplIxEES2_RKNS1_IT_EE@Base 0.4c
 _ZNK5boost9date_time13date_durationINS0_23duration_traits_adaptedEE4daysEv@Base 0.4c
 _ZNK5boost9date_time13time_durationINS_10posix_time13time_durationENS0_22time_resolution_traitsINS0_37time_resolution_traits_adapted64_implELNS0_16time_resolutionsE5ELx1000000ELt6EiEEE10is_specialEv@Base 0.4c
 _ZNK5boost9date_time13time_durationINS_10posix_time13time_durationENS0_22time_resolution_traitsINS0_37time_resolution_traits_adapted64_implELNS0_16time_resolutionsE5ELx1000000ELt6EiEEE11is_negativeEv@Base 0.4c
 _ZNK5boost9date_time13time_durationINS_10posix_time13time_durationENS0_22time_resolution_traitsINS0_37time_resolution_traits_adapted64_implELNS0_16time_resolutionsE5ELx1000000ELt6EiEEE18fractional_secondsEv@Base 0.4c
 _ZNK5boost9date_time13time_durationINS_10posix_time13time_durationENS0_22time_resolution_traitsINS0_37time_resolution_traits_adapted64_implELNS0_16time_resolutionsE5ELx1000000ELt6EiEEE5hoursEv@Base 0.4c
 _ZNK5boost9date_time13time_durationINS_10posix_time13time_durationENS0_22time_resolution_traitsINS0_37time_resolution_traits_adapted64_implELNS0_16time_resolutionsE5ELx1000000ELt6EiEEE5ticksEv@Base 0.4c
 _ZNK5boost9date_time13time_durationINS_10posix_time13time_durationENS0_22time_resolution_traitsINS0_37time_resolution_traits_adapted64_implELNS0_16time_resolutionsE5ELx1000000ELt6EiEEE7get_repEv@Base 0.4c
 _ZNK5boost9date_time13time_durationINS_10posix_time13time_durationENS0_22time_resolution_traitsINS0_37time_resolution_traits_adapted64_implELNS0_16time_resolutionsE5ELx1000000ELt6EiEEE7minutesEv@Base 0.4c
 _ZNK5boost9date_time13time_durationINS_10posix_time13time_durationENS0_22time_resolution_traitsINS0_37time_resolution_traits_adapted64_implELNS0_16time_resolutionsE5ELx1000000ELt6EiEEE7secondsEv@Base 0.4c
 _ZNK5boost9date_time16counted_time_repINS_10posix_time33millisec_posix_time_system_configEE10is_specialEv@Base 0.4c
 _ZNK5boost9date_time16counted_time_repINS_10posix_time33millisec_posix_time_system_configEE10time_countEv@Base 0.4c
 _ZNK5boost9date_time16counted_time_repINS_10posix_time33millisec_posix_time_system_configEE15is_neg_infinityEv@Base 0.4c
 _ZNK5boost9date_time16counted_time_repINS_10posix_time33millisec_posix_time_system_configEE15is_pos_infinityEv@Base 0.4c
 _ZNK5boost9date_time16counted_time_repINS_10posix_time33millisec_posix_time_system_configEE18is_not_a_date_timeEv@Base 0.4c
 _ZNK5boost9date_time16counted_time_repINS_10posix_time33millisec_posix_time_system_configEE3todEv@Base 0.4c
 _ZNK5boost9date_time16counted_time_repINS_10posix_time33millisec_posix_time_system_configEE4dateEv@Base 0.4c
 _ZNK5boost9date_time16counted_time_repINS_10posix_time33millisec_posix_time_system_configEE7get_repEv@Base 0.4c
 _ZNK5boost9date_time16counted_time_repINS_10posix_time33millisec_posix_time_system_configEE9day_countEv@Base 0.4c
 _ZNK5boost9date_time24special_values_formatterIcSt19ostreambuf_iteratorIcSt11char_traitsIcEEE11put_specialES5_RKNS0_14special_valuesE@Base 0.4c
 _ZNK5boost9date_time4dateINS_9gregorian4dateENS2_18gregorian_calendarENS2_13date_durationEE10as_specialEv@Base 0.4c
 _ZNK5boost9date_time4dateINS_9gregorian4dateENS2_18gregorian_calendarENS2_13date_durationEE10is_specialEv@Base 0.4c
 _ZNK5boost9date_time4dateINS_9gregorian4dateENS2_18gregorian_calendarENS2_13date_durationEE11day_of_weekEv@Base 0.4c
 _ZNK5boost9date_time4dateINS_9gregorian4dateENS2_18gregorian_calendarENS2_13date_durationEE11is_infinityEv@Base 0.4c
 _ZNK5boost9date_time4dateINS_9gregorian4dateENS2_18gregorian_calendarENS2_13date_durationEE13is_not_a_dateEv@Base 0.4c
 _ZNK5boost9date_time4dateINS_9gregorian4dateENS2_18gregorian_calendarENS2_13date_durationEE14year_month_dayEv@Base 0.4c
 _ZNK5boost9date_time4dateINS_9gregorian4dateENS2_18gregorian_calendarENS2_13date_durationEE4yearEv@Base 0.4c
 _ZNK5boost9date_time4dateINS_9gregorian4dateENS2_18gregorian_calendarENS2_13date_durationEE9day_countEv@Base 0.4c
 _ZNK5boost9date_time4dateINS_9gregorian4dateENS2_18gregorian_calendarENS2_13date_durationEEmiERKS3_@Base 0.4c
 _ZNK5boost9date_time6periodINS_10posix_time5ptimeENS2_13time_durationEE3endEv@Base 0.4c
 _ZNK5boost9date_time6periodINS_10posix_time5ptimeENS2_13time_durationEE6lengthEv@Base 0.4c
 _ZNK5boost9date_time9base_timeINS_10posix_time5ptimeENS0_19counted_time_systemINS0_16counted_time_repINS2_33millisec_posix_time_system_configEEEEEE10is_specialEv@Base 0.4c
 _ZNK5boost9date_time9base_timeINS_10posix_time5ptimeENS0_19counted_time_systemINS0_16counted_time_repINS2_33millisec_posix_time_system_configEEEEEE11is_infinityEv@Base 0.4c
 _ZNK5boost9date_time9base_timeINS_10posix_time5ptimeENS0_19counted_time_systemINS0_16counted_time_repINS2_33millisec_posix_time_system_configEEEEEE11time_of_dayEv@Base 0.4c
 _ZNK5boost9date_time9base_timeINS_10posix_time5ptimeENS0_19counted_time_systemINS0_16counted_time_repINS2_33millisec_posix_time_system_configEEEEEE11zone_abbrevEb@Base 0.4c
 _ZNK5boost9date_time9base_timeINS_10posix_time5ptimeENS0_19counted_time_systemINS0_16counted_time_repINS2_33millisec_posix_time_system_configEEEEEE15is_neg_infinityEv@Base 0.4c
 _ZNK5boost9date_time9base_timeINS_10posix_time5ptimeENS0_19counted_time_systemINS0_16counted_time_repINS2_33millisec_posix_time_system_configEEEEEE15is_pos_infinityEv@Base 0.4c
 _ZNK5boost9date_time9base_timeINS_10posix_time5ptimeENS0_19counted_time_systemINS0_16counted_time_repINS2_33millisec_posix_time_system_configEEEEEE18is_not_a_date_timeEv@Base 0.4c
 _ZNK5boost9date_time9base_timeINS_10posix_time5ptimeENS0_19counted_time_systemINS0_16counted_time_repINS2_33millisec_posix_time_system_configEEEEEE20zone_as_posix_stringEv@Base 0.4c
 _ZNK5boost9date_time9base_timeINS_10posix_time5ptimeENS0_19counted_time_systemINS0_16counted_time_repINS2_33millisec_posix_time_system_configEEEEEE4dateEv@Base 0.4c
 _ZNK5boost9date_time9base_timeINS_10posix_time5ptimeENS0_19counted_time_systemINS0_16counted_time_repINS2_33millisec_posix_time_system_configEEEEEE9zone_nameEb@Base 0.4c
 _ZNK5boost9date_time9base_timeINS_10posix_time5ptimeENS0_19counted_time_systemINS0_16counted_time_repINS2_33millisec_posix_time_system_configEEEEEEltERKS3_@Base 0.4c
 _ZNK5boost9date_time9base_timeINS_10posix_time5ptimeENS0_19counted_time_systemINS0_16counted_time_repINS2_33millisec_posix_time_system_configEEEEEEmiERKNS2_13time_durationE@Base 0.4c
 _ZNK5boost9date_time9base_timeINS_10posix_time5ptimeENS0_19counted_time_systemINS0_16counted_time_repINS2_33millisec_posix_time_system_configEEEEEEmiERKS3_@Base 0.4c
 _ZNK5boost9date_time9base_timeINS_10posix_time5ptimeENS0_19counted_time_systemINS0_16counted_time_repINS2_33millisec_posix_time_system_configEEEEEEplERKNS2_13time_durationE@Base 0.4c
 _ZNK5boost9function2INS_14iterator_rangeIPKcEES3_S3_E10get_vtableEv@Base 0.4c
 _ZNK5boost9function2INS_14iterator_rangeIPKcEES3_S3_EclES3_S3_@Base 0.4c
 _ZNK5boost9gregorian10greg_monthcvtEv@Base 0.4c
 _ZNK5boost9gregorian4date10day_numberEv@Base 0.4c
 _ZNK5boost9gregorian4date11day_of_yearEv@Base 0.4c
 _ZNK5boost9gregorian8greg_daycvtEv@Base 0.4c
 _ZNK5boost9gregorian9greg_yearcvtEv@Base 0.4c
 _ZNK9__gnu_cxx13new_allocatorIN5boost2io6detail11format_itemIcSt11char_traitsIcESaIcEEEE8max_sizeEv@Base 0.4c
 _ZNK9__gnu_cxx13new_allocatorIPN3hpp5debug6OutputEE8max_sizeEv@Base 0.4c
 _ZNK9__gnu_cxx13new_allocatorIPPN3hpp5debug6OutputEE8max_sizeEv@Base 0.4c
 _ZNK9__gnu_cxx13new_allocatorIPcE8max_sizeEv@Base 0.4c
 _ZNK9__gnu_cxx13new_allocatorISsE8max_sizeEv@Base 0.4c
 _ZNK9__gnu_cxx13new_allocatorIcE8max_sizeEv@Base 0.4c
 _ZNK9__gnu_cxx13new_allocatorImE8max_sizeEv@Base 0.4c
 _ZNK9__gnu_cxx17__normal_iteratorIPKPN3hpp5debug6OutputESt6vectorIS4_SaIS4_EEE4baseEv@Base 0.4c
 _ZNK9__gnu_cxx17__normal_iteratorIPKSsSt6vectorISsSaISsEEE4baseEv@Base 0.4c
 _ZNK9__gnu_cxx17__normal_iteratorIPKSsSt6vectorISsSaISsEEEdeEv@Base 0.4c
 _ZNK9__gnu_cxx17__normal_iteratorIPKcSsE4baseEv@Base 0.4c
 _ZNK9__gnu_cxx17__normal_iteratorIPKcSsEdeEv@Base 0.4c
 _ZNK9__gnu_cxx17__normal_iteratorIPKcSsEplERKi@Base 0.4c
 _ZNK9__gnu_cxx17__normal_iteratorIPN5boost2io6detail11format_itemIcSt11char_traitsIcESaIcEEESt6vectorIS8_SaIS8_EEE4baseEv@Base 0.4c
 _ZNK9__gnu_cxx17__normal_iteratorIPPN3hpp5debug6OutputESt6vectorIS4_SaIS4_EEE4baseEv@Base 0.4c
 _ZNK9__gnu_cxx17__normal_iteratorIPPN3hpp5debug6OutputESt6vectorIS4_SaIS4_EEEdeEv@Base 0.4c
 _ZNK9__gnu_cxx17__normal_iteratorIPSsSt6vectorISsSaISsEEE4baseEv@Base 0.4c
 _ZNK9__gnu_cxx17__normal_iteratorIPSsSt6vectorISsSaISsEEEdeEv@Base 0.4c
 _ZNK9__gnu_cxx17__normal_iteratorIPcSsE4baseEv@Base 0.4c
 _ZNK9__gnu_cxx17__normal_iteratorIPcSsEdeEv@Base 0.4c
 _ZNK9__gnu_cxx17__normal_iteratorIPcSsEmiERKi@Base 0.4c
 _ZNKSt11_Deque_baseIPN3hpp5debug6OutputESaIS3_EE19_M_get_Tp_allocatorEv@Base 0.4c
 _ZNKSt11_Deque_baseIPN3hpp5debug6OutputESaIS3_EE20_M_get_map_allocatorEv@Base 0.4c
 _ZNKSt11_Deque_baseIcSaIcEE19_M_get_Tp_allocatorEv@Base 0.4c
 _ZNKSt11_Deque_baseIcSaIcEE20_M_get_map_allocatorEv@Base 0.4c
 _ZNKSt12_Vector_baseIN5boost2io6detail11format_itemIcSt11char_traitsIcESaIcEEESaIS7_EE19_M_get_Tp_allocatorEv@Base 0.4c
 _ZNKSt12_Vector_baseIPN3hpp5debug6OutputESaIS3_EE19_M_get_Tp_allocatorEv@Base 0.4c
 _ZNKSt12_Vector_baseISsSaISsEE19_M_get_Tp_allocatorEv@Base 0.4c
 _ZNKSt13_Bit_iteratordeEv@Base 0.4c
 _ZNKSt13_Bit_iteratorplEi@Base 0.4c
 _ZNKSt13_Bvector_baseISaIbEE20_M_get_Bit_allocatorEv@Base 0.4c
 _ZNKSt14_Bit_referencecvbEv@Base 0.4c
 _ZNKSt15_Deque_iteratorIPN3hpp5debug6OutputERKS3_PS4_EdeEv@Base 0.4c
 _ZNKSt15_Deque_iteratorIPN3hpp5debug6OutputERS3_PS3_EdeEv@Base 0.4c
 _ZNKSt15_Deque_iteratorIcRcPcEdeEv@Base 0.4c
 _ZNKSt15_Deque_iteratorIcRcPcEmiEi@Base 0.4c
 _ZNKSt15_Deque_iteratorIcRcPcEplEi@Base 0.4c
 _ZNKSt18_Bit_iterator_baseeqERKS_@Base 0.4c
 _ZNKSt18_Bit_iterator_baseneERKS_@Base 0.4c
 _ZNKSt19_Bit_const_iteratordeEv@Base 0.4c
 _ZNKSt4fposI11__mbstate_tEcvxEv@Base 0.4c
 _ZNKSt5ctypeIcE2isEtc@Base 0.4c
 _ZNKSt5ctypeIcE5widenEc@Base 0.4c
 _ZNKSt5ctypeIcE6narrowEcc@Base 0.4c
 _ZNKSt5dequeIPN3hpp5debug6OutputESaIS3_EE3endEv@Base 0.4c
 _ZNKSt5dequeIPN3hpp5debug6OutputESaIS3_EE4sizeEv@Base 0.4c
 _ZNKSt5dequeIPN3hpp5debug6OutputESaIS3_EE5beginEv@Base 0.4c
 _ZNKSt5dequeIcSaIcEE4sizeEv@Base 0.4c
 _ZNKSt5dequeIcSaIcEE5emptyEv@Base 0.4c
 _ZNKSt5dequeIcSaIcEE8max_sizeEv@Base 0.4c
 _ZNKSt6vectorIN5boost2io6detail11format_itemIcSt11char_traitsIcESaIcEEESaIS7_EE12_M_check_lenEjPKc@Base 0.4c
 _ZNKSt6vectorIN5boost2io6detail11format_itemIcSt11char_traitsIcESaIcEEESaIS7_EE4sizeEv@Base 0.4c
 _ZNKSt6vectorIN5boost2io6detail11format_itemIcSt11char_traitsIcESaIcEEESaIS7_EE8capacityEv@Base 0.4c
 _ZNKSt6vectorIN5boost2io6detail11format_itemIcSt11char_traitsIcESaIcEEESaIS7_EE8max_sizeEv@Base 0.4c
 _ZNKSt6vectorIN5boost2io6detail11format_itemIcSt11char_traitsIcESaIcEEESaIS7_EEixEj@Base 0.4c
 _ZNKSt6vectorIPN3hpp5debug6OutputESaIS3_EE3endEv@Base 0.4c
 _ZNKSt6vectorIPN3hpp5debug6OutputESaIS3_EE4sizeEv@Base 0.4c
 _ZNKSt6vectorIPN3hpp5debug6OutputESaIS3_EE5beginEv@Base 0.4c
 _ZNKSt6vectorISsSaISsEE12_M_check_lenEjPKc@Base 0.4c
 _ZNKSt6vectorISsSaISsEE3endEv@Base 0.4c
 _ZNKSt6vectorISsSaISsEE4sizeEv@Base 0.4c
 _ZNKSt6vectorISsSaISsEE5beginEv@Base 0.4c
 _ZNKSt6vectorISsSaISsEE8capacityEv@Base 0.4c
 _ZNKSt6vectorISsSaISsEE8max_sizeEv@Base 0.4c
 _ZNKSt6vectorISsSaISsEEixEj@Base 0.4c
 _ZNKSt6vectorIbSaIbEE12_M_check_lenEjPKc@Base 0.4c
 _ZNKSt6vectorIbSaIbEE3endEv@Base 0.4c
 _ZNKSt6vectorIbSaIbEE4sizeEv@Base 0.4c
 _ZNKSt6vectorIbSaIbEE5beginEv@Base 0.4c
 _ZNKSt6vectorIbSaIbEE8capacityEv@Base 0.4c
 _ZNKSt6vectorIbSaIbEE8max_sizeEv@Base 0.4c
 _ZNKSt8ios_base5flagsEv@Base 0.4c
 _ZNKSt8ios_base5widthEv@Base 0.4c
 _ZNKSt8ios_base6getlocEv@Base 0.4c
 _ZNKSt9type_info4nameEv@Base 0.4c
 _ZNKSt9type_infoeqERKS_@Base 0.4c
 _ZNSaIN5boost2io6detail11format_itemIcSt11char_traitsIcESaIcEEEEC2ERKS7_@Base 0.4c
 _ZNSaIN5boost2io6detail11format_itemIcSt11char_traitsIcESaIcEEEEC2Ev@Base 0.4c
 _ZNSaIN5boost2io6detail11format_itemIcSt11char_traitsIcESaIcEEEED2Ev@Base 0.4c
 _ZNSaIPN3hpp5debug6OutputEEC1Ev@Base 0.4c
 _ZNSaIPN3hpp5debug6OutputEEC2ERKS3_@Base 0.4c
 _ZNSaIPN3hpp5debug6OutputEEC2Ev@Base 0.4c
 _ZNSaIPN3hpp5debug6OutputEED1Ev@Base 0.4c
 _ZNSaIPN3hpp5debug6OutputEED2Ev@Base 0.4c
 _ZNSaIPPN3hpp5debug6OutputEEC1IS2_EERKSaIT_E@Base 0.4c
 _ZNSaIPPN3hpp5debug6OutputEED1Ev@Base 0.4c
 _ZNSaIPcEC1IcEERKSaIT_E@Base 0.4c
 _ZNSaIPcED1Ev@Base 0.4c
 _ZNSaISsEC1Ev@Base 0.4c
 _ZNSaISsEC2ERKS_@Base 0.4c
 _ZNSaISsEC2Ev@Base 0.4c
 _ZNSaISsED1Ev@Base 0.4c
 _ZNSaISsED2Ev@Base 0.4c
 _ZNSaImEC2Ev@Base 0.4c
 _ZNSaImED2Ev@Base 0.4c
 _ZNSs12_S_constructIPKcEEPcT_S3_RKSaIcE@Base 0.4c
 _ZNSs12_S_constructIPKcEEPcT_S3_RKSaIcESt20forward_iterator_tag@Base 0.4c
 _ZNSs12_S_constructISt15_Deque_iteratorIcRcPcEEES2_T_S4_RKSaIcE@Base 0.4c
 _ZNSs12_S_constructISt15_Deque_iteratorIcRcPcEEES2_T_S4_RKSaIcESt20forward_iterator_tag@Base 0.4c
 _ZNSs13_S_copy_charsISt15_Deque_iteratorIcRcPcEEEvS2_T_S4_@Base 0.4c
 _ZNSs16_S_construct_auxIPKcEEPcT_S3_RKSaIcESt12__false_type@Base 0.4c
 _ZNSs16_S_construct_auxISt15_Deque_iteratorIcRcPcEEES2_T_S4_RKSaIcESt12__false_type@Base 0.4c
 _ZNSs19_M_replace_dispatchISt15_Deque_iteratorIcRcPcEEERSsN9__gnu_cxx17__normal_iteratorIS2_SsEES7_T_S8_St12__false_type@Base 0.4c
 _ZNSs6appendIN9__gnu_cxx17__normal_iteratorIPKcSsEEEERSsT_S6_@Base 0.4c
 _ZNSs6insertISt15_Deque_iteratorIcRcPcEEEvN9__gnu_cxx17__normal_iteratorIS2_SsEET_S7_@Base 0.4c
 _ZNSs7replaceISt15_Deque_iteratorIcRcPcEEERSsN9__gnu_cxx17__normal_iteratorIS2_SsEES7_T_S8_@Base 0.4c
 _ZNSsC1IPKcEET_S2_RKSaIcE@Base 0.4c
 _ZNSsC1ISt15_Deque_iteratorIcRcPcEEET_S4_RKSaIcE@Base 0.4c
 _ZNSt11_Deque_baseIPN3hpp5debug6OutputESaIS3_EE11_Deque_implC1ERKS4_@Base 0.4c
 _ZNSt11_Deque_baseIPN3hpp5debug6OutputESaIS3_EE11_Deque_implC1Ev@Base 0.4c
 _ZNSt11_Deque_baseIPN3hpp5debug6OutputESaIS3_EE11_Deque_implD1Ev@Base 0.4c
 _ZNSt11_Deque_baseIPN3hpp5debug6OutputESaIS3_EE15_M_allocate_mapEj@Base 0.4c
 _ZNSt11_Deque_baseIPN3hpp5debug6OutputESaIS3_EE15_M_create_nodesEPPS3_S7_@Base 0.4c
 _ZNSt11_Deque_baseIPN3hpp5debug6OutputESaIS3_EE16_M_allocate_nodeEv@Base 0.4c
 _ZNSt11_Deque_baseIPN3hpp5debug6OutputESaIS3_EE16_M_destroy_nodesEPPS3_S7_@Base 0.4c
 _ZNSt11_Deque_baseIPN3hpp5debug6OutputESaIS3_EE17_M_deallocate_mapEPPS3_j@Base 0.4c
 _ZNSt11_Deque_baseIPN3hpp5debug6OutputESaIS3_EE17_M_initialize_mapEj@Base 0.4c
 _ZNSt11_Deque_baseIPN3hpp5debug6OutputESaIS3_EE18_M_deallocate_nodeEPS3_@Base 0.4c
 _ZNSt11_Deque_baseIPN3hpp5debug6OutputESaIS3_EE19_M_get_Tp_allocatorEv@Base 0.4c
 _ZNSt11_Deque_baseIPN3hpp5debug6OutputESaIS3_EEC2ERKS4_j@Base 0.4c
 _ZNSt11_Deque_baseIPN3hpp5debug6OutputESaIS3_EEC2Ev@Base 0.4c
 _ZNSt11_Deque_baseIPN3hpp5debug6OutputESaIS3_EED2Ev@Base 0.4c
 _ZNSt11_Deque_baseIcSaIcEE11_Deque_implC1Ev@Base 0.4c
 _ZNSt11_Deque_baseIcSaIcEE11_Deque_implD1Ev@Base 0.4c
 _ZNSt11_Deque_baseIcSaIcEE15_M_allocate_mapEj@Base 0.4c
 _ZNSt11_Deque_baseIcSaIcEE15_M_create_nodesEPPcS3_@Base 0.4c
 _ZNSt11_Deque_baseIcSaIcEE16_M_allocate_nodeEv@Base 0.4c
 _ZNSt11_Deque_baseIcSaIcEE16_M_destroy_nodesEPPcS3_@Base 0.4c
 _ZNSt11_Deque_baseIcSaIcEE17_M_deallocate_mapEPPcj@Base 0.4c
 _ZNSt11_Deque_baseIcSaIcEE17_M_initialize_mapEj@Base 0.4c
 _ZNSt11_Deque_baseIcSaIcEE18_M_deallocate_nodeEPc@Base 0.4c
 _ZNSt11_Deque_baseIcSaIcEE19_M_get_Tp_allocatorEv@Base 0.4c
 _ZNSt11_Deque_baseIcSaIcEEC2Ev@Base 0.4c
 _ZNSt11_Deque_baseIcSaIcEED2Ev@Base 0.4c
 _ZNSt11__copy_moveILb0ELb0ESt26random_access_iterator_tagE8__copy_mIPA17_KcSt20back_insert_iteratorISt6vectorISsSaISsEEEEET0_T_SC_SB_@Base 0.4c
 _ZNSt11__copy_moveILb0ELb0ESt26random_access_iterator_tagE8__copy_mIPKcSt15_Deque_iteratorIcRcPcEEET0_T_SA_S9_@Base 0.4c
 _ZNSt11__copy_moveILb0ELb0ESt26random_access_iterator_tagE8__copy_mIPKcSt19ostreambuf_iteratorIcSt11char_traitsIcEEEET0_T_SA_S9_@Base 0.4c
 _ZNSt11__copy_moveILb0ELb0ESt26random_access_iterator_tagE8__copy_mISt13_Bit_iteratorS3_EET0_T_S5_S4_@Base 0.4c
 _ZNSt11__copy_moveILb0ELb0ESt26random_access_iterator_tagE8__copy_mISt15_Deque_iteratorIPN3hpp5debug6OutputERKS7_PS8_ES3_IS7_RS7_PS7_EEET0_T_SG_SF_@Base 0.4c
 _ZNSt11__copy_moveILb0ELb0ESt26random_access_iterator_tagE8__copy_mISt15_Deque_iteratorIPN3hpp5debug6OutputERS7_PS7_ES9_EET0_T_SC_SB_@Base 0.4c
 _ZNSt11__copy_moveILb0ELb0ESt26random_access_iterator_tagE8__copy_mISt15_Deque_iteratorIcRcPcES6_EET0_T_S8_S7_@Base 0.4c
 _ZNSt11__copy_moveILb0ELb0ESt26random_access_iterator_tagE8__copy_mISt19_Bit_const_iteratorSt13_Bit_iteratorEET0_T_S6_S5_@Base 0.4c
 _ZNSt11__copy_moveILb0ELb1ESt26random_access_iterator_tagE8__copy_mIPN3hpp5debug6OutputEEEPT_PKS7_SA_S8_@Base 0.4c
 _ZNSt11__copy_moveILb0ELb1ESt26random_access_iterator_tagE8__copy_mIPPN3hpp5debug6OutputEEEPT_PKS8_SB_S9_@Base 0.4c
 _ZNSt11__copy_moveILb0ELb1ESt26random_access_iterator_tagE8__copy_mIPcEEPT_PKS4_S7_S5_@Base 0.4c
 _ZNSt11__copy_moveILb0ELb1ESt26random_access_iterator_tagE8__copy_mIcEEPT_PKS3_S6_S4_@Base 0.4c
 _ZNSt11__copy_moveILb0ELb1ESt26random_access_iterator_tagE8__copy_mImEEPT_PKS3_S6_S4_@Base 0.4c
 _ZNSt11__iter_swapILb1EE9iter_swapIPcS2_EEvT_T0_@Base 0.4c
 _ZNSt11char_traitsIcE11eq_int_typeERKiS2_@Base 0.4c
 _ZNSt11char_traitsIcE11to_int_typeERKc@Base 0.4c
 _ZNSt11char_traitsIcE12to_char_typeERKi@Base 0.4c
 _ZNSt11char_traitsIcE2eqERKcS2_@Base 0.4c
 _ZNSt11char_traitsIcE3eofEv@Base 0.4c
 _ZNSt11char_traitsIcE4copyEPcPKcj@Base 0.4c
 _ZNSt11char_traitsIcE6assignERcRKc@Base 0.4c
 _ZNSt11char_traitsIcE7compareEPKcS2_j@Base 0.4c
 _ZNSt11char_traitsIcE7not_eofERKi@Base 0.4c
 _ZNSt11logic_errorC2ERKS_@Base 0.4c
 _ZNSt12_Destroy_auxILb0EE9__destroyIPN5boost2io6detail11format_itemIcSt11char_traitsIcESaIcEEEEEvT_SB_@Base 0.4c
 _ZNSt12_Destroy_auxILb0EE9__destroyIPSsEEvT_S3_@Base 0.4c
 _ZNSt12_Destroy_auxILb1EE9__destroyIPPN3hpp5debug6OutputEEEvT_S7_@Base 0.4c
 _ZNSt12_Destroy_auxILb1EE9__destroyISt15_Deque_iteratorIcRcPcEEEvT_S6_@Base 0.4c
 _ZNSt12_Vector_baseIN5boost2io6detail11format_itemIcSt11char_traitsIcESaIcEEESaIS7_EE11_M_allocateEj@Base 0.4c
 _ZNSt12_Vector_baseIN5boost2io6detail11format_itemIcSt11char_traitsIcESaIcEEESaIS7_EE12_Vector_implC1ERKS8_@Base 0.4c
 _ZNSt12_Vector_baseIN5boost2io6detail11format_itemIcSt11char_traitsIcESaIcEEESaIS7_EE12_Vector_implC1Ev@Base 0.4c
 _ZNSt12_Vector_baseIN5boost2io6detail11format_itemIcSt11char_traitsIcESaIcEEESaIS7_EE12_Vector_implD1Ev@Base 0.4c
 _ZNSt12_Vector_baseIN5boost2io6detail11format_itemIcSt11char_traitsIcESaIcEEESaIS7_EE13_M_deallocateEPS7_j@Base 0.4c
 _ZNSt12_Vector_baseIN5boost2io6detail11format_itemIcSt11char_traitsIcESaIcEEESaIS7_EE19_M_get_Tp_allocatorEv@Base 0.4c
 _ZNSt12_Vector_baseIN5boost2io6detail11format_itemIcSt11char_traitsIcESaIcEEESaIS7_EEC2EjRKS8_@Base 0.4c
 _ZNSt12_Vector_baseIN5boost2io6detail11format_itemIcSt11char_traitsIcESaIcEEESaIS7_EEC2Ev@Base 0.4c
 _ZNSt12_Vector_baseIN5boost2io6detail11format_itemIcSt11char_traitsIcESaIcEEESaIS7_EED2Ev@Base 0.4c
 _ZNSt12_Vector_baseIPN3hpp5debug6OutputESaIS3_EE11_M_allocateEj@Base 0.4c
 _ZNSt12_Vector_baseIPN3hpp5debug6OutputESaIS3_EE12_Vector_implC1ERKS4_@Base 0.4c
 _ZNSt12_Vector_baseIPN3hpp5debug6OutputESaIS3_EE12_Vector_implD1Ev@Base 0.4c
 _ZNSt12_Vector_baseIPN3hpp5debug6OutputESaIS3_EE13_M_deallocateEPS3_j@Base 0.4c
 _ZNSt12_Vector_baseIPN3hpp5debug6OutputESaIS3_EE19_M_get_Tp_allocatorEv@Base 0.4c
 _ZNSt12_Vector_baseIPN3hpp5debug6OutputESaIS3_EEC2ERKS4_@Base 0.4c
 _ZNSt12_Vector_baseIPN3hpp5debug6OutputESaIS3_EEC2EjRKS4_@Base 0.4c
 _ZNSt12_Vector_baseIPN3hpp5debug6OutputESaIS3_EED2Ev@Base 0.4c
 _ZNSt12_Vector_baseISsSaISsEE11_M_allocateEj@Base 0.4c
 _ZNSt12_Vector_baseISsSaISsEE12_Vector_implC1ERKS0_@Base 0.4c
 _ZNSt12_Vector_baseISsSaISsEE12_Vector_implC1Ev@Base 0.4c
 _ZNSt12_Vector_baseISsSaISsEE12_Vector_implD1Ev@Base 0.4c
 _ZNSt12_Vector_baseISsSaISsEE13_M_deallocateEPSsj@Base 0.4c
 _ZNSt12_Vector_baseISsSaISsEE19_M_get_Tp_allocatorEv@Base 0.4c
 _ZNSt12_Vector_baseISsSaISsEEC2ERKS0_@Base 0.4c
 _ZNSt12_Vector_baseISsSaISsEEC2EjRKS0_@Base 0.4c
 _ZNSt12_Vector_baseISsSaISsEEC2Ev@Base 0.4c
 _ZNSt12_Vector_baseISsSaISsEED2Ev@Base 0.4c
 _ZNSt12__alloc_swapISaIN5boost2io6detail11format_itemIcSt11char_traitsIcESaIcEEEELb1EE8_S_do_itERS8_SA_@Base 0.4c
 _ZNSt12__alloc_swapISaISsELb1EE8_S_do_itERS0_S2_@Base 0.4c
 _ZNSt12__miter_baseIN9__gnu_cxx17__normal_iteratorIPKPN3hpp5debug6OutputESt6vectorIS5_SaIS5_EEEELb0EE3__bESB_@Base 0.4c
 _ZNSt12__miter_baseIN9__gnu_cxx17__normal_iteratorIPKcSsEELb0EE3__bES4_@Base 0.4c
 _ZNSt12__miter_baseIN9__gnu_cxx17__normal_iteratorIPcSsEELb0EE3__bES3_@Base 0.4c
 _ZNSt12__miter_baseIPA17_KcLb0EE3__bES2_@Base 0.4c
 _ZNSt12__miter_baseIPKcLb0EE3__bES1_@Base 0.4c
 _ZNSt12__miter_baseIPN5boost2io6detail11format_itemIcSt11char_traitsIcESaIcEEELb0EE3__bES8_@Base 0.4c
 _ZNSt12__miter_baseIPPPN3hpp5debug6OutputELb0EE3__bES5_@Base 0.4c
 _ZNSt12__miter_baseIPPcLb0EE3__bES1_@Base 0.4c
 _ZNSt12__miter_baseIPSsLb0EE3__bES0_@Base 0.4c
 _ZNSt12__miter_baseIPcLb0EE3__bES0_@Base 0.4c
 _ZNSt12__miter_baseIPmLb0EE3__bES0_@Base 0.4c
 _ZNSt12__miter_baseISt13_Bit_iteratorLb0EE3__bES0_@Base 0.4c
 _ZNSt12__miter_baseISt15_Deque_iteratorIPN3hpp5debug6OutputERKS4_PS5_ELb0EE3__bES8_@Base 0.4c
 _ZNSt12__miter_baseISt15_Deque_iteratorIPN3hpp5debug6OutputERS4_PS4_ELb0EE3__bES7_@Base 0.4c
 _ZNSt12__miter_baseISt15_Deque_iteratorIcRcPcELb0EE3__bES3_@Base 0.4c
 _ZNSt12__miter_baseISt19_Bit_const_iteratorLb0EE3__bES0_@Base 0.4c
 _ZNSt12__niter_baseIN9__gnu_cxx17__normal_iteratorIPKPN3hpp5debug6OutputESt6vectorIS5_SaIS5_EEEELb1EE3__bESB_@Base 0.4c
 _ZNSt12__niter_baseIN9__gnu_cxx17__normal_iteratorIPKSsSt6vectorISsSaISsEEEELb1EE3__bES7_@Base 0.4c
 _ZNSt12__niter_baseIN9__gnu_cxx17__normal_iteratorIPKcSsEELb1EE3__bES4_@Base 0.4c
 _ZNSt12__niter_baseIN9__gnu_cxx17__normal_iteratorIPN5boost2io6detail11format_itemIcSt11char_traitsIcESaIcEEESt6vectorIS9_SaIS9_EEEELb1EE3__bESE_@Base 0.4c
 _ZNSt12__niter_baseIN9__gnu_cxx17__normal_iteratorIPcSsEELb1EE3__bES3_@Base 0.4c
 _ZNSt12__niter_baseIPA17_KcLb0EE3__bES2_@Base 0.4c
 _ZNSt12__niter_baseIPKcLb0EE3__bES1_@Base 0.4c
 _ZNSt12__niter_baseIPN5boost2io6detail11format_itemIcSt11char_traitsIcESaIcEEELb0EE3__bES8_@Base 0.4c
 _ZNSt12__niter_baseIPPN3hpp5debug6OutputELb0EE3__bES4_@Base 0.4c
 _ZNSt12__niter_baseIPPPN3hpp5debug6OutputELb0EE3__bES5_@Base 0.4c
 _ZNSt12__niter_baseIPPcLb0EE3__bES1_@Base 0.4c
 _ZNSt12__niter_baseIPSsLb0EE3__bES0_@Base 0.4c
 _ZNSt12__niter_baseIPcLb0EE3__bES0_@Base 0.4c
 _ZNSt12__niter_baseIPmLb0EE3__bES0_@Base 0.4c
 _ZNSt12__niter_baseISt13_Bit_iteratorLb0EE3__bES0_@Base 0.4c
 _ZNSt12__niter_baseISt15_Deque_iteratorIPN3hpp5debug6OutputERKS4_PS5_ELb0EE3__bES8_@Base 0.4c
 _ZNSt12__niter_baseISt15_Deque_iteratorIPN3hpp5debug6OutputERS4_PS4_ELb0EE3__bES7_@Base 0.4c
 _ZNSt12__niter_baseISt15_Deque_iteratorIcRcPcELb0EE3__bES3_@Base 0.4c
 _ZNSt12__niter_baseISt19_Bit_const_iteratorLb0EE3__bES0_@Base 0.4c
 _ZNSt12__niter_baseISt19ostreambuf_iteratorIcSt11char_traitsIcEELb0EE3__bES3_@Base 0.4c
 _ZNSt12__niter_baseISt20back_insert_iteratorISt6vectorISsSaISsEEELb0EE3__bES4_@Base 0.4c
 _ZNSt12out_of_rangeC2ERKS_@Base 0.4c
 _ZNSt12out_of_rangeD0Ev@Base 0.4c
 _ZNSt12out_of_rangeD1Ev@Base 0.4c
 _ZNSt12out_of_rangeD2Ev@Base 0.4c
 _ZNSt13_Bit_iteratorC1EPmj@Base 0.4c
 _ZNSt13_Bit_iteratorC1Ev@Base 0.4c
 _ZNSt13_Bit_iteratormmEv@Base 0.4c
 _ZNSt13_Bit_iteratorpLEi@Base 0.4c
 _ZNSt13_Bit_iteratorppEv@Base 0.4c
 _ZNSt13_Bvector_baseISaIbEE11_M_allocateEj@Base 0.4c
 _ZNSt13_Bvector_baseISaIbEE13_Bvector_implC1Ev@Base 0.4c
 _ZNSt13_Bvector_baseISaIbEE13_Bvector_implD1Ev@Base 0.4c
 _ZNSt13_Bvector_baseISaIbEE13_M_deallocateEv@Base 0.4c
 _ZNSt13_Bvector_baseISaIbEEC2Ev@Base 0.4c
 _ZNSt13_Bvector_baseISaIbEED2Ev@Base 0.4c
 _ZNSt13runtime_errorC2ERKS_@Base 0.4c
 _ZNSt14_Bit_referenceC1EPmm@Base 0.4c
 _ZNSt14_Bit_referenceaSERKS_@Base 0.4c
 _ZNSt14_Bit_referenceaSEb@Base 0.4c
 _ZNSt14numeric_limitsIiE3maxEv@Base 0.4c
 _ZNSt14numeric_limitsIjE3maxEv@Base 0.4c
 _ZNSt14numeric_limitsImE3maxEv@Base 0.4c
 _ZNSt14numeric_limitsImE3minEv@Base 0.4c
 _ZNSt14numeric_limitsIxE3maxEv@Base 0.4c
 _ZNSt14numeric_limitsIxE3minEv@Base 0.4c
 _ZNSt15_Deque_iteratorIPN3hpp5debug6OutputERKS3_PS4_E11_M_set_nodeEPPS3_@Base 0.4c
 _ZNSt15_Deque_iteratorIPN3hpp5debug6OutputERKS3_PS4_E14_S_buffer_sizeEv@Base 0.4c
 _ZNSt15_Deque_iteratorIPN3hpp5debug6OutputERKS3_PS4_EC1ERKS_IS3_RS3_PS3_E@Base 0.4c
 _ZNSt15_Deque_iteratorIPN3hpp5debug6OutputERKS3_PS4_EppEv@Base 0.4c
 _ZNSt15_Deque_iteratorIPN3hpp5debug6OutputERS3_PS3_E11_M_set_nodeEPS5_@Base 0.4c
 _ZNSt15_Deque_iteratorIPN3hpp5debug6OutputERS3_PS3_E14_S_buffer_sizeEv@Base 0.4c
 _ZNSt15_Deque_iteratorIPN3hpp5debug6OutputERS3_PS3_EC1ERKS6_@Base 0.4c
 _ZNSt15_Deque_iteratorIPN3hpp5debug6OutputERS3_PS3_EC1Ev@Base 0.4c
 _ZNSt15_Deque_iteratorIPN3hpp5debug6OutputERS3_PS3_EppEv@Base 0.4c
 _ZNSt15_Deque_iteratorIcRcPcE11_M_set_nodeEPS1_@Base 0.4c
 _ZNSt15_Deque_iteratorIcRcPcE14_S_buffer_sizeEv@Base 0.4c
 _ZNSt15_Deque_iteratorIcRcPcEC1ERKS2_@Base 0.4c
 _ZNSt15_Deque_iteratorIcRcPcEC1Ev@Base 0.4c
 _ZNSt15_Deque_iteratorIcRcPcEmIEi@Base 0.4c
 _ZNSt15_Deque_iteratorIcRcPcEmmEv@Base 0.4c
 _ZNSt15_Deque_iteratorIcRcPcEpLEi@Base 0.4c
 _ZNSt15_Deque_iteratorIcRcPcEppEv@Base 0.4c
 _ZNSt15binary_functionIPKcS1_N5boost14iterator_rangeIS1_EEEC2Ev@Base 0.4c
 _ZNSt18_Bit_iterator_base10_M_bump_upEv@Base 0.4c
 _ZNSt18_Bit_iterator_base12_M_bump_downEv@Base 0.4c
 _ZNSt18_Bit_iterator_base7_M_incrEi@Base 0.4c
 _ZNSt18_Bit_iterator_baseC2EPmj@Base 0.4c
 _ZNSt19_Bit_const_iteratorC1EPmj@Base 0.4c
 _ZNSt19_Bit_const_iteratorC1ERKSt13_Bit_iterator@Base 0.4c
 _ZNSt19_Bit_const_iteratorppEv@Base 0.4c
 _ZNSt19ostreambuf_iteratorIcSt11char_traitsIcEEC1ERSo@Base 0.4c
 _ZNSt19ostreambuf_iteratorIcSt11char_traitsIcEEaSEc@Base 0.4c
 _ZNSt19ostreambuf_iteratorIcSt11char_traitsIcEEdeEv@Base 0.4c
 _ZNSt19ostreambuf_iteratorIcSt11char_traitsIcEEppEv@Base 0.4c
 _ZNSt20__copy_move_backwardILb0ELb0ESt26random_access_iterator_tagE13__copy_move_bIPN5boost2io6detail11format_itemIcSt11char_traitsIcESaIcEEESB_EET0_T_SD_SC_@Base 0.4c
 _ZNSt20__copy_move_backwardILb0ELb0ESt26random_access_iterator_tagE13__copy_move_bIPSsS3_EET0_T_S5_S4_@Base 0.4c
 _ZNSt20__copy_move_backwardILb0ELb0ESt26random_access_iterator_tagE13__copy_move_bISt13_Bit_iteratorS3_EET0_T_S5_S4_@Base 0.4c
 _ZNSt20__copy_move_backwardILb0ELb0ESt26random_access_iterator_tagE13__copy_move_bISt15_Deque_iteratorIcRcPcES6_EET0_T_S8_S7_@Base 0.4c
 _ZNSt20__copy_move_backwardILb0ELb1ESt26random_access_iterator_tagE13__copy_move_bIPPN3hpp5debug6OutputEEEPT_PKS8_SB_S9_@Base 0.4c
 _ZNSt20__copy_move_backwardILb0ELb1ESt26random_access_iterator_tagE13__copy_move_bIPcEEPT_PKS4_S7_S5_@Base 0.4c
 _ZNSt20__copy_move_backwardILb0ELb1ESt26random_access_iterator_tagE13__copy_move_bIcEEPT_PKS3_S6_S4_@Base 0.4c
 _ZNSt20__uninitialized_copyILb0EE18uninitialized_copyIN9__gnu_cxx17__normal_iteratorIPKSsSt6vectorISsSaISsEEEEPSsEET0_T_SC_SB_@Base 0.4c
 _ZNSt20__uninitialized_copyILb0EE18uninitialized_copyIPN5boost2io6detail11format_itemIcSt11char_traitsIcESaIcEEESA_EET0_T_SC_SB_@Base 0.4c
 _ZNSt20__uninitialized_copyILb0EE18uninitialized_copyIPSsS2_EET0_T_S4_S3_@Base 0.4c
 _ZNSt20__uninitialized_copyILb1EE18uninitialized_copyIN9__gnu_cxx17__normal_iteratorIPKPN3hpp5debug6OutputESt6vectorIS7_SaIS7_EEEEPS7_EET0_T_SG_SF_@Base 0.4c
 _ZNSt20__uninitialized_copyILb1EE18uninitialized_copyIN9__gnu_cxx17__normal_iteratorIPKcSsEESt15_Deque_iteratorIcRcPcEEET0_T_SC_SB_@Base 0.4c
 _ZNSt20__uninitialized_copyILb1EE18uninitialized_copyIPKcSt15_Deque_iteratorIcRcPcEEET0_T_S9_S8_@Base 0.4c
 _ZNSt20__uninitialized_copyILb1EE18uninitialized_copyISt15_Deque_iteratorIPN3hpp5debug6OutputERKS6_PS7_ES2_IS6_RS6_PS6_EEET0_T_SF_SE_@Base 0.4c
 _ZNSt20__uninitialized_copyILb1EE18uninitialized_copyISt15_Deque_iteratorIPN3hpp5debug6OutputERS6_PS6_ES8_EET0_T_SB_SA_@Base 0.4c
 _ZNSt20__uninitialized_copyILb1EE18uninitialized_copyISt15_Deque_iteratorIcRcPcES5_EET0_T_S7_S6_@Base 0.4c
 _ZNSt20back_insert_iteratorISt6vectorISsSaISsEEEC1ERS2_@Base 0.4c
 _ZNSt20back_insert_iteratorISt6vectorISsSaISsEEEaSERKSs@Base 0.4c
 _ZNSt20back_insert_iteratorISt6vectorISsSaISsEEEdeEv@Base 0.4c
 _ZNSt20back_insert_iteratorISt6vectorISsSaISsEEEppEv@Base 0.4c
 _ZNSt22__uninitialized_fill_nILb0EE20uninitialized_fill_nIPN5boost2io6detail11format_itemIcSt11char_traitsIcESaIcEEEjS9_EEvT_T0_RKT1_@Base 0.4c
 _ZNSt22__uninitialized_fill_nILb0EE20uninitialized_fill_nIPSsjSsEEvT_T0_RKT1_@Base 0.4c
 _ZNSt25__lexicographical_compareILb0EE4__lcIPKSsS3_EEbT_S4_T0_S5_@Base 0.4c
 _ZNSt4fposI11__mbstate_tEC1Ex@Base 0.4c
 _ZNSt5dequeIPN3hpp5debug6OutputESaIS3_EE15_M_destroy_dataESt15_Deque_iteratorIS3_RS3_PS3_ES9_RKS4_@Base 0.4c
 _ZNSt5dequeIPN3hpp5debug6OutputESaIS3_EE16_M_push_back_auxERKS3_@Base 0.4c
 _ZNSt5dequeIPN3hpp5debug6OutputESaIS3_EE17_M_reallocate_mapEjb@Base 0.4c
 _ZNSt5dequeIPN3hpp5debug6OutputESaIS3_EE22_M_reserve_map_at_backEj@Base 0.4c
 _ZNSt5dequeIPN3hpp5debug6OutputESaIS3_EE3endEv@Base 0.4c
 _ZNSt5dequeIPN3hpp5debug6OutputESaIS3_EE5beginEv@Base 0.4c
 _ZNSt5dequeIPN3hpp5debug6OutputESaIS3_EE9push_backERKS3_@Base 0.4c
 _ZNSt5dequeIPN3hpp5debug6OutputESaIS3_EEC1ERKS5_@Base 0.4c
 _ZNSt5dequeIPN3hpp5debug6OutputESaIS3_EEC1Ev@Base 0.4c
 _ZNSt5dequeIPN3hpp5debug6OutputESaIS3_EED1Ev@Base 0.4c
 _ZNSt5dequeIcSaIcEE13_M_insert_auxIN9__gnu_cxx17__normal_iteratorIPKcSsEEEEvSt15_Deque_iteratorIcRcPcET_SC_j@Base 0.4c
 _ZNSt5dequeIcSaIcEE13_M_insert_auxIPKcEEvSt15_Deque_iteratorIcRcPcET_S9_j@Base 0.4c
 _ZNSt5dequeIcSaIcEE14_S_buffer_sizeEv@Base 0.4c
 _ZNSt5dequeIcSaIcEE15_M_destroy_dataESt15_Deque_iteratorIcRcPcES5_RKS0_@Base 0.4c
 _ZNSt5dequeIcSaIcEE16_M_pop_front_auxEv@Base 0.4c
 _ZNSt5dequeIcSaIcEE16_M_push_back_auxERKc@Base 0.4c
 _ZNSt5dequeIcSaIcEE17_M_reallocate_mapEjb@Base 0.4c
 _ZNSt5dequeIcSaIcEE18_M_insert_dispatchIN9__gnu_cxx17__normal_iteratorIPKcSsEEEEvSt15_Deque_iteratorIcRcPcET_SC_St12__false_type@Base 0.4c
 _ZNSt5dequeIcSaIcEE18_M_insert_dispatchIPKcEEvSt15_Deque_iteratorIcRcPcET_S9_St12__false_type@Base 0.4c
 _ZNSt5dequeIcSaIcEE19_M_range_insert_auxIN9__gnu_cxx17__normal_iteratorIPKcSsEEEEvSt15_Deque_iteratorIcRcPcET_SC_St20forward_iterator_tag@Base 0.4c
 _ZNSt5dequeIcSaIcEE19_M_range_insert_auxIPKcEEvSt15_Deque_iteratorIcRcPcET_S9_St20forward_iterator_tag@Base 0.4c
 _ZNSt5dequeIcSaIcEE22_M_reserve_map_at_backEj@Base 0.4c
 _ZNSt5dequeIcSaIcEE23_M_new_elements_at_backEj@Base 0.4c
 _ZNSt5dequeIcSaIcEE23_M_reserve_map_at_frontEj@Base 0.4c
 _ZNSt5dequeIcSaIcEE24_M_new_elements_at_frontEj@Base 0.4c
 _ZNSt5dequeIcSaIcEE27_M_reserve_elements_at_backEj@Base 0.4c
 _ZNSt5dequeIcSaIcEE28_M_reserve_elements_at_frontEj@Base 0.4c
 _ZNSt5dequeIcSaIcEE3endEv@Base 0.4c
 _ZNSt5dequeIcSaIcEE5beginEv@Base 0.4c
 _ZNSt5dequeIcSaIcEE5frontEv@Base 0.4c
 _ZNSt5dequeIcSaIcEE6insertIN9__gnu_cxx17__normal_iteratorIPKcSsEEEEvSt15_Deque_iteratorIcRcPcET_SC_@Base 0.4c
 _ZNSt5dequeIcSaIcEE6insertIPKcEEvSt15_Deque_iteratorIcRcPcET_S9_@Base 0.4c
 _ZNSt5dequeIcSaIcEE9pop_frontEv@Base 0.4c
 _ZNSt5dequeIcSaIcEE9push_backERKc@Base 0.4c
 _ZNSt5dequeIcSaIcEEC1Ev@Base 0.4c
 _ZNSt5dequeIcSaIcEED1Ev@Base 0.4c
 _ZNSt6locale2idC1Ev@Base 0.4c
 _ZNSt6locale5_Impl19_M_remove_referenceEv@Base 0.4c
 _ZNSt6locale5facetC2Ej@Base 0.4c
 _ZNSt6localeC1IN5boost9date_time10time_facetINS1_10posix_time5ptimeEcSt19ostreambuf_iteratorIcSt11char_traitsIcEEEEEERKS_PT_@Base 0.4c
 _ZNSt6vectorIN5boost2io6detail11format_itemIcSt11char_traitsIcESaIcEEESaIS7_EE14_M_fill_assignEjRKS7_@Base 0.4c
 _ZNSt6vectorIN5boost2io6detail11format_itemIcSt11char_traitsIcESaIcEEESaIS7_EE14_M_fill_insertEN9__gnu_cxx17__normal_iteratorIPS7_S9_EEjRKS7_@Base 0.4c
 _ZNSt6vectorIN5boost2io6detail11format_itemIcSt11char_traitsIcESaIcEEESaIS7_EE15_M_erase_at_endEPS7_@Base 0.4c
 _ZNSt6vectorIN5boost2io6detail11format_itemIcSt11char_traitsIcESaIcEEESaIS7_EE18_M_fill_initializeEjRKS7_@Base 0.4c
 _ZNSt6vectorIN5boost2io6detail11format_itemIcSt11char_traitsIcESaIcEEESaIS7_EE3endEv@Base 0.4c
 _ZNSt6vectorIN5boost2io6detail11format_itemIcSt11char_traitsIcESaIcEEESaIS7_EE4swapERS9_@Base 0.4c
 _ZNSt6vectorIN5boost2io6detail11format_itemIcSt11char_traitsIcESaIcEEESaIS7_EE5beginEv@Base 0.4c
 _ZNSt6vectorIN5boost2io6detail11format_itemIcSt11char_traitsIcESaIcEEESaIS7_EE6assignEjRKS7_@Base 0.4c
 _ZNSt6vectorIN5boost2io6detail11format_itemIcSt11char_traitsIcESaIcEEESaIS7_EE6insertEN9__gnu_cxx17__normal_iteratorIPS7_S9_EEjRKS7_@Base 0.4c
 _ZNSt6vectorIN5boost2io6detail11format_itemIcSt11char_traitsIcESaIcEEESaIS7_EE6resizeEjS7_@Base 0.4c
 _ZNSt6vectorIN5boost2io6detail11format_itemIcSt11char_traitsIcESaIcEEESaIS7_EEC1EjRKS7_RKS8_@Base 0.4c
 _ZNSt6vectorIN5boost2io6detail11format_itemIcSt11char_traitsIcESaIcEEESaIS7_EEC1Ev@Base 0.4c
 _ZNSt6vectorIN5boost2io6detail11format_itemIcSt11char_traitsIcESaIcEEESaIS7_EED1Ev@Base 0.4c
 _ZNSt6vectorIN5boost2io6detail11format_itemIcSt11char_traitsIcESaIcEEESaIS7_EEixEj@Base 0.4c
 _ZNSt6vectorIPN3hpp5debug6OutputESaIS3_EE19_M_range_initializeISt15_Deque_iteratorIS3_RS3_PS3_EEEvT_SB_St20forward_iterator_tag@Base 0.4c
 _ZNSt6vectorIPN3hpp5debug6OutputESaIS3_EE22_M_initialize_dispatchISt15_Deque_iteratorIS3_RS3_PS3_EEEvT_SB_St12__false_type@Base 0.4c
 _ZNSt6vectorIPN3hpp5debug6OutputESaIS3_EE3endEv@Base 0.4c
 _ZNSt6vectorIPN3hpp5debug6OutputESaIS3_EE5beginEv@Base 0.4c
 _ZNSt6vectorIPN3hpp5debug6OutputESaIS3_EEC1ERKS5_@Base 0.4c
 _ZNSt6vectorIPN3hpp5debug6OutputESaIS3_EEC1ISt15_Deque_iteratorIS3_RS3_PS3_EEET_SB_RKS4_@Base 0.4c
 _ZNSt6vectorIPN3hpp5debug6OutputESaIS3_EED1Ev@Base 0.4c
 _ZNSt6vectorISsSaISsEE13_M_insert_auxEN9__gnu_cxx17__normal_iteratorIPSsS1_EERKSs@Base 0.4c
 _ZNSt6vectorISsSaISsEE14_M_fill_insertEN9__gnu_cxx17__normal_iteratorIPSsS1_EEjRKSs@Base 0.4c
 _ZNSt6vectorISsSaISsEE15_M_erase_at_endEPSs@Base 0.4c
 _ZNSt6vectorISsSaISsEE19_M_range_initializeIN5boost18transform_iteratorINS3_9algorithm6detail20copy_iterator_rangeFISsPKcEENS5_14split_iteratorIS9_EENS3_11use_defaultESD_EEEEvT_SF_St18input_iterator_tag@Base 0.4c
 _ZNSt6vectorISsSaISsEE20_M_allocate_and_copyIPSsEES3_jT_S4_@Base 0.4c
 _ZNSt6vectorISsSaISsEE22_M_initialize_dispatchIN5boost18transform_iteratorINS3_9algorithm6detail20copy_iterator_rangeFISsPKcEENS5_14split_iteratorIS9_EENS3_11use_defaultESD_EEEEvT_SF_St12__false_type@Base 0.4c
 _ZNSt6vectorISsSaISsEE3endEv@Base 0.4c
 _ZNSt6vectorISsSaISsEE4swapERS1_@Base 0.4c
 _ZNSt6vectorISsSaISsEE5beginEv@Base 0.4c
 _ZNSt6vectorISsSaISsEE6insertEN9__gnu_cxx17__normal_iteratorIPSsS1_EEjRKSs@Base 0.4c
 _ZNSt6vectorISsSaISsEE6resizeEjSs@Base 0.4c
 _ZNSt6vectorISsSaISsEE7reserveEj@Base 0.4c
 _ZNSt6vectorISsSaISsEE9push_backERKSs@Base 0.4c
 _ZNSt6vectorISsSaISsEEC1ERKS1_@Base 0.4c
 _ZNSt6vectorISsSaISsEEC1Ev@Base 0.4c
 _ZNSt6vectorISsSaISsEEC1IN5boost18transform_iteratorINS3_9algorithm6detail20copy_iterator_rangeFISsPKcEENS5_14split_iteratorIS9_EENS3_11use_defaultESD_EEEET_SF_RKS0_@Base 0.4c
 _ZNSt6vectorISsSaISsEED1Ev@Base 0.4c
 _ZNSt6vectorIbSaIbEE14_M_fill_insertESt13_Bit_iteratorjb@Base 0.4c
 _ZNSt6vectorIbSaIbEE15_M_copy_alignedESt19_Bit_const_iteratorS2_St13_Bit_iterator@Base 0.4c
 _ZNSt6vectorIbSaIbEE15_M_erase_at_endESt13_Bit_iterator@Base 0.4c
 _ZNSt6vectorIbSaIbEE3endEv@Base 0.4c
 _ZNSt6vectorIbSaIbEE5beginEv@Base 0.4c
 _ZNSt6vectorIbSaIbEE6insertESt13_Bit_iteratorjRKb@Base 0.4c
 _ZNSt6vectorIbSaIbEE6resizeEjb@Base 0.4c
 _ZNSt6vectorIbSaIbEEC1Ev@Base 0.4c
 _ZNSt6vectorIbSaIbEED1Ev@Base 0.4c
 _ZNSt6vectorIbSaIbEEixEj@Base 0.4c
 _ZNSt7__equalILb0EE5equalIPKSsS3_EEbT_S4_T0_@Base 0.4c
 _ZNSt7__equalILb1EE5equalIcEEbPKT_S4_S4_@Base 0.4c
 _ZNSt8__lc_raiISt26random_access_iterator_tagS0_E10__newlast1IPKSsS4_EET_S5_S5_T0_S6_@Base 0.4c
 _ZNSt8__lc_raiISt26random_access_iterator_tagS0_E6__cnd2IPKSsEEbT_S5_@Base 0.4c
 _ZNSt8ios_base5flagsESt13_Ios_Fmtflags@Base 0.4c
 _ZNSt8ios_base5iwordEi@Base 0.4c
 _ZNSt8ios_base5widthEi@Base 0.4c
 _ZNSt8ios_base9precisionEi@Base 0.4c
 _ZNSt8iteratorISt19output_iterator_tagvvvvEC2Ev@Base 0.4c
 _ZNSt8iteratorISt26random_access_iterator_tagbiPbRbEC2Ev@Base 0.4c
 _ZNSt9exceptionC2ERKS_@Base 0.4c
 _ZNSt9exceptionC2Ev@Base 0.4c
 _ZSt10_ConstructIN5boost2io6detail11format_itemIcSt11char_traitsIcESaIcEEES7_EvPT_RKT0_@Base 0.4c
 _ZSt10_ConstructISsSsEvPT_RKT0_@Base 0.4c
 _ZSt10__distanceIN9__gnu_cxx17__normal_iteratorIPKcSsEEENSt15iterator_traitsIT_E15difference_typeES6_S6_St26random_access_iterator_tag@Base 0.4c
 _ZSt10__distanceIPKcENSt15iterator_traitsIT_E15difference_typeES3_S3_St26random_access_iterator_tag@Base 0.4c
 _ZSt10__distanceISt15_Deque_iteratorIPN3hpp5debug6OutputERS4_PS4_EENSt15iterator_traitsIT_E15difference_typeES9_S9_St26random_access_iterator_tag@Base 0.4c
 _ZSt10__distanceISt15_Deque_iteratorIcRcPcEENSt15iterator_traitsIT_E15difference_typeES5_S5_St26random_access_iterator_tag@Base 0.4c
 _ZSt10__fill_n_aIPN5boost2io6detail11format_itemIcSt11char_traitsIcESaIcEEEjS7_EN9__gnu_cxx11__enable_ifIXntsrSt11__is_scalarIT1_E7__valueET_E6__typeESE_T0_RKSC_@Base 0.4c
 _ZSt10__pop_heapIPcEvT_S1_S1_@Base 0.4c
 _ZSt11__equal_auxIPKSsS1_EbT_S2_T0_@Base 0.4c
 _ZSt11__equal_auxIPKcS1_EbT_S2_T0_@Base 0.4c
 _ZSt11__push_heapIPcicEvT_T0_S2_T1_@Base 0.4c
 _ZSt11lower_boundIPKccET_S2_S2_RKT0_@Base 0.4c
 _ZSt12partial_sortIPcEvT_S1_S1_@Base 0.4c
 _ZSt13__adjust_heapIPcicEvT_T0_S2_T1_@Base 0.4c
 _ZSt13__copy_move_aILb0EPA17_KcSt20back_insert_iteratorISt6vectorISsSaISsEEEET1_T0_S9_S8_@Base 0.4c
 _ZSt13__copy_move_aILb0EPKPN3hpp5debug6OutputEPS3_ET1_T0_S8_S7_@Base 0.4c
 _ZSt13__copy_move_aILb0EPKcPcET1_T0_S4_S3_@Base 0.4c
 _ZSt13__copy_move_aILb0EPKcSt15_Deque_iteratorIcRcPcEET1_T0_S7_S6_@Base 0.4c
 _ZSt13__copy_move_aILb0EPKcSt19ostreambuf_iteratorIcSt11char_traitsIcEEET1_T0_S7_S6_@Base 0.4c
 _ZSt13__copy_move_aILb0EPPPN3hpp5debug6OutputES5_ET1_T0_S7_S6_@Base 0.4c
 _ZSt13__copy_move_aILb0EPPcS1_ET1_T0_S3_S2_@Base 0.4c
 _ZSt13__copy_move_aILb0EPcS0_ET1_T0_S2_S1_@Base 0.4c
 _ZSt13__copy_move_aILb0EPmS0_ET1_T0_S2_S1_@Base 0.4c
 _ZSt13__copy_move_aILb0ESt13_Bit_iteratorS0_ET1_T0_S2_S1_@Base 0.4c
 _ZSt13__copy_move_aILb0ESt15_Deque_iteratorIPN3hpp5debug6OutputERKS4_PS5_ES0_IS4_RS4_PS4_EET1_T0_SD_SC_@Base 0.4c
 _ZSt13__copy_move_aILb0ESt15_Deque_iteratorIPN3hpp5debug6OutputERS4_PS4_ES6_ET1_T0_S9_S8_@Base 0.4c
 _ZSt13__copy_move_aILb0ESt15_Deque_iteratorIcRcPcES3_ET1_T0_S5_S4_@Base 0.4c
 _ZSt13__copy_move_aILb0ESt19_Bit_const_iteratorSt13_Bit_iteratorET1_T0_S3_S2_@Base 0.4c
 _ZSt13__heap_selectIPcEvT_S1_S1_@Base 0.4c
 _ZSt13back_inserterISt6vectorISsSaISsEEESt20back_insert_iteratorIT_ERS4_@Base 0.4c
 _ZSt13binary_searchIPKccEbT_S2_RKT0_@Base 0.4c
 _ZSt13copy_backwardIPN5boost2io6detail11format_itemIcSt11char_traitsIcESaIcEEES8_ET0_T_SA_S9_@Base 0.4c
 _ZSt13copy_backwardIPPPN3hpp5debug6OutputES5_ET0_T_S7_S6_@Base 0.4c
 _ZSt13copy_backwardIPPcS1_ET0_T_S3_S2_@Base 0.4c
 _ZSt13copy_backwardIPSsS0_ET0_T_S2_S1_@Base 0.4c
 _ZSt13copy_backwardIPcS0_ET0_T_S2_S1_@Base 0.4c
 _ZSt13copy_backwardISt13_Bit_iteratorS0_ET0_T_S2_S1_@Base 0.4c
 _ZSt13copy_backwardISt15_Deque_iteratorIcRcPcES3_ET0_T_S5_S4_@Base 0.4c
 _ZSt14__copy_move_a2ILb0EN9__gnu_cxx17__normal_iteratorIPKPN3hpp5debug6OutputESt6vectorIS5_SaIS5_EEEEPS5_ET1_T0_SE_SD_@Base 0.4c
 _ZSt14__copy_move_a2ILb0EN9__gnu_cxx17__normal_iteratorIPKcSsEESt15_Deque_iteratorIcRcPcEET1_T0_SA_S9_@Base 0.4c
 _ZSt14__copy_move_a2ILb0EN9__gnu_cxx17__normal_iteratorIPKcSsEESt19ostreambuf_iteratorIcSt11char_traitsIcEEET1_T0_SA_S9_@Base 0.4c
 _ZSt14__copy_move_a2ILb0EN9__gnu_cxx17__normal_iteratorIPcSsEES3_ET1_T0_S5_S4_@Base 0.4c
 _ZSt14__copy_move_a2ILb0EPA17_KcSt20back_insert_iteratorISt6vectorISsSaISsEEEET1_T0_S9_S8_@Base 0.4c
 _ZSt14__copy_move_a2ILb0EPKcPcET1_T0_S4_S3_@Base 0.4c
 _ZSt14__copy_move_a2ILb0EPKcSt15_Deque_iteratorIcRcPcEET1_T0_S7_S6_@Base 0.4c
 _ZSt14__copy_move_a2ILb0EPPPN3hpp5debug6OutputES5_ET1_T0_S7_S6_@Base 0.4c
 _ZSt14__copy_move_a2ILb0EPPcS1_ET1_T0_S3_S2_@Base 0.4c
 _ZSt14__copy_move_a2ILb0EPmS0_ET1_T0_S2_S1_@Base 0.4c
 _ZSt14__copy_move_a2ILb0ESt13_Bit_iteratorS0_ET1_T0_S2_S1_@Base 0.4c
 _ZSt14__copy_move_a2ILb0ESt15_Deque_iteratorIPN3hpp5debug6OutputERKS4_PS5_ES0_IS4_RS4_PS4_EET1_T0_SD_SC_@Base 0.4c
 _ZSt14__copy_move_a2ILb0ESt15_Deque_iteratorIPN3hpp5debug6OutputERS4_PS4_ES6_ET1_T0_S9_S8_@Base 0.4c
 _ZSt14__copy_move_a2ILb0ESt15_Deque_iteratorIcRcPcES3_ET1_T0_S5_S4_@Base 0.4c
 _ZSt14__copy_move_a2ILb0ESt19_Bit_const_iteratorSt13_Bit_iteratorET1_T0_S3_S2_@Base 0.4c
 _ZSt14__fill_bvectorSt13_Bit_iteratorS_b@Base 0.4c
 _ZSt16__deque_buf_sizej@Base 0.4c
 _ZSt16__insertion_sortIPcEvT_S1_@Base 0.4c
 _ZSt16__introsort_loopIPciEvT_S1_T0_@Base 0.4c
 _ZSt18uninitialized_copyIN9__gnu_cxx17__normal_iteratorIPKPN3hpp5debug6OutputESt6vectorIS5_SaIS5_EEEEPS5_ET0_T_SE_SD_@Base 0.4c
 _ZSt18uninitialized_copyIN9__gnu_cxx17__normal_iteratorIPKSsSt6vectorISsSaISsEEEEPSsET0_T_SA_S9_@Base 0.4c
 _ZSt18uninitialized_copyIN9__gnu_cxx17__normal_iteratorIPKcSsEESt15_Deque_iteratorIcRcPcEET0_T_SA_S9_@Base 0.4c
 _ZSt18uninitialized_copyIPKcSt15_Deque_iteratorIcRcPcEET0_T_S7_S6_@Base 0.4c
 _ZSt18uninitialized_copyIPN5boost2io6detail11format_itemIcSt11char_traitsIcESaIcEEES8_ET0_T_SA_S9_@Base 0.4c
 _ZSt18uninitialized_copyIPSsS0_ET0_T_S2_S1_@Base 0.4c
 _ZSt18uninitialized_copyISt15_Deque_iteratorIPN3hpp5debug6OutputERKS4_PS5_ES0_IS4_RS4_PS4_EET0_T_SD_SC_@Base 0.4c
 _ZSt18uninitialized_copyISt15_Deque_iteratorIPN3hpp5debug6OutputERS4_PS4_ES6_ET0_T_S9_S8_@Base 0.4c
 _ZSt18uninitialized_copyISt15_Deque_iteratorIcRcPcES3_ET0_T_S5_S4_@Base 0.4c
 _ZSt19__iterator_categoryIN9__gnu_cxx17__normal_iteratorIPKcSsEEENSt15iterator_traitsIT_E17iterator_categoryERKS6_@Base 0.4c
 _ZSt19__iterator_categoryIPKcENSt15iterator_traitsIT_E17iterator_categoryERKS3_@Base 0.4c
 _ZSt19__iterator_categoryISt15_Deque_iteratorIPN3hpp5debug6OutputERS4_PS4_EENSt15iterator_traitsIT_E17iterator_categoryERKS9_@Base 0.4c
 _ZSt19__iterator_categoryISt15_Deque_iteratorIcRcPcEENSt15iterator_traitsIT_E17iterator_categoryERKS5_@Base 0.4c
 _ZSt20uninitialized_fill_nIPN5boost2io6detail11format_itemIcSt11char_traitsIcESaIcEEEjS7_EvT_T0_RKT1_@Base 0.4c
 _ZSt20uninitialized_fill_nIPSsjSsEvT_T0_RKT1_@Base 0.4c
 _ZSt21__unguarded_partitionIPccET_S1_S1_T0_@Base 0.4c
 _ZSt22__copy_move_backward_aILb0EPN5boost2io6detail11format_itemIcSt11char_traitsIcESaIcEEES8_ET1_T0_SA_S9_@Base 0.4c
 _ZSt22__copy_move_backward_aILb0EPPPN3hpp5debug6OutputES5_ET1_T0_S7_S6_@Base 0.4c
 _ZSt22__copy_move_backward_aILb0EPPcS1_ET1_T0_S3_S2_@Base 0.4c
 _ZSt22__copy_move_backward_aILb0EPSsS0_ET1_T0_S2_S1_@Base 0.4c
 _ZSt22__copy_move_backward_aILb0EPcS0_ET1_T0_S2_S1_@Base 0.4c
 _ZSt22__copy_move_backward_aILb0ESt13_Bit_iteratorS0_ET1_T0_S2_S1_@Base 0.4c
 _ZSt22__copy_move_backward_aILb0ESt15_Deque_iteratorIcRcPcES3_ET1_T0_S5_S4_@Base 0.4c
 _ZSt22__final_insertion_sortIPcEvT_S1_@Base 0.4c
 _ZSt22__uninitialized_copy_aIN9__gnu_cxx17__normal_iteratorIPKPN3hpp5debug6OutputESt6vectorIS5_SaIS5_EEEEPS5_S5_ET0_T_SE_SD_RSaIT1_E@Base 0.4c
 _ZSt22__uninitialized_copy_aIN9__gnu_cxx17__normal_iteratorIPKSsSt6vectorISsSaISsEEEEPSsSsET0_T_SA_S9_RSaIT1_E@Base 0.4c
 _ZSt22__uninitialized_copy_aIN9__gnu_cxx17__normal_iteratorIPKcSsEESt15_Deque_iteratorIcRcPcEcET0_T_SA_S9_RSaIT1_E@Base 0.4c
 _ZSt22__uninitialized_copy_aIPKcSt15_Deque_iteratorIcRcPcEcET0_T_S7_S6_RSaIT1_E@Base 0.4c
 _ZSt22__uninitialized_copy_aIPN5boost2io6detail11format_itemIcSt11char_traitsIcESaIcEEES8_S7_ET0_T_SA_S9_RSaIT1_E@Base 0.4c
 _ZSt22__uninitialized_copy_aIPSsS0_SsET0_T_S2_S1_RSaIT1_E@Base 0.4c
 _ZSt22__uninitialized_copy_aISt15_Deque_iteratorIPN3hpp5debug6OutputERKS4_PS5_ES0_IS4_RS4_PS4_ES4_ET0_T_SD_SC_RSaIT1_E@Base 0.4c
 _ZSt22__uninitialized_copy_aISt15_Deque_iteratorIPN3hpp5debug6OutputERS4_PS4_ES6_S4_ET0_T_S9_S8_RSaIT1_E@Base 0.4c
 _ZSt22__uninitialized_copy_aISt15_Deque_iteratorIcRcPcES3_cET0_T_S5_S4_RSaIT1_E@Base 0.4c
 _ZSt22__uninitialized_move_aIPN5boost2io6detail11format_itemIcSt11char_traitsIcESaIcEEES8_SaIS7_EET0_T_SB_SA_RT1_@Base 0.4c
 _ZSt22__uninitialized_move_aIPSsS0_SaISsEET0_T_S3_S2_RT1_@Base 0.4c
 _ZSt22__uninitialized_move_aISt15_Deque_iteratorIcRcPcES3_SaIcEET0_T_S6_S5_RT1_@Base 0.4c
 _ZSt23__copy_move_backward_a2ILb0EPN5boost2io6detail11format_itemIcSt11char_traitsIcESaIcEEES8_ET1_T0_SA_S9_@Base 0.4c
 _ZSt23__copy_move_backward_a2ILb0EPPPN3hpp5debug6OutputES5_ET1_T0_S7_S6_@Base 0.4c
 _ZSt23__copy_move_backward_a2ILb0EPPcS1_ET1_T0_S3_S2_@Base 0.4c
 _ZSt23__copy_move_backward_a2ILb0EPSsS0_ET1_T0_S2_S1_@Base 0.4c
 _ZSt23__copy_move_backward_a2ILb0EPcS0_ET1_T0_S2_S1_@Base 0.4c
 _ZSt23__copy_move_backward_a2ILb0ESt13_Bit_iteratorS0_ET1_T0_S2_S1_@Base 0.4c
 _ZSt23__copy_move_backward_a2ILb0ESt15_Deque_iteratorIcRcPcES3_ET1_T0_S5_S4_@Base 0.4c
 _ZSt23lexicographical_compareIN9__gnu_cxx17__normal_iteratorIPKSsSt6vectorISsSaISsEEEES7_EbT_S8_T0_S9_@Base 0.4c
 _ZSt24__uninitialized_fill_n_aIPN5boost2io6detail11format_itemIcSt11char_traitsIcESaIcEEEjS7_S7_EvT_T0_RKT1_RSaIT2_E@Base 0.4c
 _ZSt24__uninitialized_fill_n_aIPSsjSsSsEvT_T0_RKT1_RSaIT2_E@Base 0.4c
 _ZSt25__unguarded_linear_insertIPccEvT_T0_@Base 0.4c
 _ZSt25__uninitialized_copy_moveIN9__gnu_cxx17__normal_iteratorIPKcSsEESt15_Deque_iteratorIcRcPcES8_SaIcEET1_T_SB_T0_SC_SA_RT2_@Base 0.4c
 _ZSt25__uninitialized_copy_moveIPKcSt15_Deque_iteratorIcRcPcES5_SaIcEET1_T_S8_T0_S9_S7_RT2_@Base 0.4c
 _ZSt25__uninitialized_move_copyISt15_Deque_iteratorIcRcPcEN9__gnu_cxx17__normal_iteratorIPKcSsEES3_SaIcEET1_T_SB_T0_SC_SA_RT2_@Base 0.4c
 _ZSt25__uninitialized_move_copyISt15_Deque_iteratorIcRcPcEPKcS3_SaIcEET1_T_S8_T0_S9_S7_RT2_@Base 0.4c
 _ZSt26__unguarded_insertion_sortIPcEvT_S1_@Base 0.4c
 _ZSt29__lexicographical_compare_auxIPKSsS1_EbT_S2_T0_S3_@Base 0.4c
 _ZSt3maxIiERKT_S2_S2_@Base 0.4c
 _ZSt3maxIjERKT_S2_S2_@Base 0.4c
 _ZSt3minIjERKT_S2_S2_@Base 0.4c
 _ZSt4__lgi@Base 0.4c
 _ZSt4copyIN9__gnu_cxx17__normal_iteratorIPKPN3hpp5debug6OutputESt6vectorIS5_SaIS5_EEEEPS5_ET0_T_SE_SD_@Base 0.4c
 _ZSt4copyIN9__gnu_cxx17__normal_iteratorIPKcSsEESt15_Deque_iteratorIcRcPcEET0_T_SA_S9_@Base 0.4c
 _ZSt4copyIN9__gnu_cxx17__normal_iteratorIPKcSsEESt19ostreambuf_iteratorIcSt11char_traitsIcEEET0_T_SA_S9_@Base 0.4c
 _ZSt4copyIN9__gnu_cxx17__normal_iteratorIPcSsEES3_ET0_T_S5_S4_@Base 0.4c
 _ZSt4copyIPA17_KcSt20back_insert_iteratorISt6vectorISsSaISsEEEET0_T_S9_S8_@Base 0.4c
 _ZSt4copyIPKcPcET0_T_S4_S3_@Base 0.4c
 _ZSt4copyIPKcSt15_Deque_iteratorIcRcPcEET0_T_S7_S6_@Base 0.4c
 _ZSt4copyIPPPN3hpp5debug6OutputES5_ET0_T_S7_S6_@Base 0.4c
 _ZSt4copyIPPcS1_ET0_T_S3_S2_@Base 0.4c
 _ZSt4copyIPmS0_ET0_T_S2_S1_@Base 0.4c
 _ZSt4copyISt13_Bit_iteratorS0_ET0_T_S2_S1_@Base 0.4c
 _ZSt4copyISt15_Deque_iteratorIPN3hpp5debug6OutputERKS4_PS5_ES0_IS4_RS4_PS4_EET0_T_SD_SC_@Base 0.4c
 _ZSt4copyISt15_Deque_iteratorIPN3hpp5debug6OutputERS4_PS4_ES6_ET0_T_S9_S8_@Base 0.4c
 _ZSt4copyISt15_Deque_iteratorIcRcPcES3_ET0_T_S5_S4_@Base 0.4c
 _ZSt4copyISt19_Bit_const_iteratorSt13_Bit_iteratorET0_T_S3_S2_@Base 0.4c
 _ZSt4fillIN9__gnu_cxx17__normal_iteratorIPN5boost2io6detail11format_itemIcSt11char_traitsIcESaIcEEESt6vectorIS9_SaIS9_EEEES9_EvT_SF_RKT0_@Base 0.4c
 _ZSt4fillIPN5boost2io6detail11format_itemIcSt11char_traitsIcESaIcEEES7_EvT_S9_RKT0_@Base 0.4c
 _ZSt4fillIPSsSsEvT_S1_RKT0_@Base 0.4c
 _ZSt4fillIPmiEvT_S1_RKT0_@Base 0.4c
 _ZSt4fillSt13_Bit_iteratorS_RKb@Base 0.4c
 _ZSt4setwi@Base 0.4c
 _ZSt4sortIPcEvT_S1_@Base 0.4c
 _ZSt4swapIPN5boost10filesystem22basic_filesystem_errorINS1_10basic_pathISsNS1_11path_traitsEEEE5m_impEEvRT_SA_@Base 0.4c
 _ZSt4swapIPN5boost2io6detail11format_itemIcSt11char_traitsIcESaIcEEEEvRT_SA_@Base 0.4c
 _ZSt4swapIPSsEvRT_S2_@Base 0.4c
 _ZSt4swapIcEvRT_S1_@Base 0.4c
 _ZSt5equalIN9__gnu_cxx17__normal_iteratorIPKSsSt6vectorISsSaISsEEEES7_EbT_S8_T0_@Base 0.4c
 _ZSt5equalIPKcS1_EbT_S2_T0_@Base 0.4c
 _ZSt6fill_nIPN5boost2io6detail11format_itemIcSt11char_traitsIcESaIcEEEjS7_ET_S9_T0_RKT1_@Base 0.4c
 _ZSt7advanceIN9__gnu_cxx17__normal_iteratorIPKcSsEEiEvRT_T0_@Base 0.4c
 _ZSt7advanceIPKciEvRT_T0_@Base 0.4c
 _ZSt7find_ifIPKcN5boost9algorithm6detail10is_any_ofFIcEEET_S7_S7_T0_@Base 0.4c
 _ZSt7setfillIcESt8_SetfillIT_ES1_@Base 0.4c
 _ZSt8_DestroyIN5boost2io6detail11format_itemIcSt11char_traitsIcESaIcEEEEvPT_@Base 0.4c
 _ZSt8_DestroyIPN5boost2io6detail11format_itemIcSt11char_traitsIcESaIcEEEEvT_S9_@Base 0.4c
 _ZSt8_DestroyIPN5boost2io6detail11format_itemIcSt11char_traitsIcESaIcEEES7_EvT_S9_RSaIT0_E@Base 0.4c
 _ZSt8_DestroyIPPN3hpp5debug6OutputEEvT_S5_@Base 0.4c
 _ZSt8_DestroyIPPN3hpp5debug6OutputES3_EvT_S5_RSaIT0_E@Base 0.4c
 _ZSt8_DestroyIPSsEvT_S1_@Base 0.4c
 _ZSt8_DestroyIPSsSsEvT_S1_RSaIT0_E@Base 0.4c
 _ZSt8_DestroyISsEvPT_@Base 0.4c
 _ZSt8_DestroyISt15_Deque_iteratorIcRcPcEEvT_S4_@Base 0.4c
 _ZSt8_DestroyISt15_Deque_iteratorIcRcPcEcEvT_S4_RSaIT0_E@Base 0.4c
 _ZSt8__fill_aIPN5boost2io6detail11format_itemIcSt11char_traitsIcESaIcEEES7_EN9__gnu_cxx11__enable_ifIXntsrSt11__is_scalarIT0_E7__valueEvE6__typeET_SG_RKSC_@Base 0.4c
 _ZSt8__fill_aIPSsSsEN9__gnu_cxx11__enable_ifIXntsrSt11__is_scalarIT0_E7__valueEvE6__typeET_S8_RKS4_@Base 0.4c
 _ZSt8__fill_aIPmiEN9__gnu_cxx11__enable_ifIXsrSt11__is_scalarIT0_E7__valueEvE6__typeET_S8_RKS4_@Base 0.4c
 _ZSt8__medianIcERKT_S2_S2_S2_@Base 0.4c
 _ZSt8distanceIN9__gnu_cxx17__normal_iteratorIPKcSsEEENSt15iterator_traitsIT_E15difference_typeES6_S6_@Base 0.4c
 _ZSt8distanceIPKcENSt15iterator_traitsIT_E15difference_typeES3_S3_@Base 0.4c
 _ZSt8distanceISt15_Deque_iteratorIPN3hpp5debug6OutputERS4_PS4_EENSt15iterator_traitsIT_E15difference_typeES9_S9_@Base 0.4c
 _ZSt8distanceISt15_Deque_iteratorIcRcPcEENSt15iterator_traitsIT_E15difference_typeES5_S5_@Base 0.4c
 _ZSt9__advanceIN9__gnu_cxx17__normal_iteratorIPKcSsEEiEvRT_T0_St26random_access_iterator_tag@Base 0.4c
 _ZSt9__advanceIPKciEvRT_T0_St26random_access_iterator_tag@Base 0.4c
 _ZSt9__find_ifIPKcN5boost9algorithm6detail10is_any_ofFIcEEET_S7_S7_T0_St26random_access_iterator_tag@Base 0.4c
 _ZSt9has_facetIN5boost9date_time10time_facetINS0_10posix_time5ptimeEcSt19ostreambuf_iteratorIcSt11char_traitsIcEEEEEbRKSt6locale@Base 0.4c
 _ZSt9iter_swapIPcS0_EvT_T0_@Base 0.4c
 _ZSt9make_heapIPcEvT_S1_@Base 0.4c
 _ZSt9sort_heapIPcEvT_S1_@Base 0.4c
 _ZSt9use_facetIN5boost9date_time10time_facetINS0_10posix_time5ptimeEcSt19ostreambuf_iteratorIcSt11char_traitsIcEEEEERKT_RKSt6locale@Base 0.4c
 _ZStaNRSt13_Ios_FmtflagsS_@Base 0.4c
 _ZStanSt13_Ios_FmtflagsS_@Base 0.4c
 _ZStanSt13_Ios_OpenmodeS_@Base 0.4c
 _ZStcoSt13_Ios_Fmtflags@Base 0.4c
 _ZSteoSt13_Ios_FmtflagsS_@Base 0.4c
 _ZSteqISsSaISsEEbRKSt6vectorIT_T0_ES6_@Base 0.4c
 _ZSteqIcEN9__gnu_cxx11__enable_ifIXsrSt9__is_charIT_E7__valueEbE6__typeERKSbIS3_St11char_traitsIS3_ESaIS3_EESC_@Base 0.4c
 _ZSteqIcEbRKSaIT_ES3_@Base 0.4c
 _ZSteqIcRcPcEbRKSt15_Deque_iteratorIT_T0_T1_ES8_@Base 0.4c
 _ZSteqIcSt11char_traitsIcESaIcEEbRKSbIT_T0_T1_EPKS3_@Base 0.4c
 _ZStgtISsSaISsEEbRKSt6vectorIT_T0_ES6_@Base 0.4c
 _ZStltISsSaISsEEbRKSt6vectorIT_T0_ES6_@Base 0.4c
 _ZStltIcSt11char_traitsIcESaIcEEbRKSbIT_T0_T1_ES8_@Base 0.4c
 _ZStmiIPN3hpp5debug6OutputERKS3_PS4_ENSt15_Deque_iteratorIT_T0_T1_E15difference_typeERKSB_SE_@Base 0.4c
 _ZStmiIPN3hpp5debug6OutputERS3_PS3_ENSt15_Deque_iteratorIT_T0_T1_E15difference_typeERKSA_SD_@Base 0.4c
 _ZStmiIcRcPcENSt15_Deque_iteratorIT_T0_T1_E15difference_typeERKS6_S9_@Base 0.4c
 _ZStmiRKSt18_Bit_iterator_baseS1_@Base 0.4c
 _ZStneISsSaISsEEbRKSt6vectorIT_T0_ES6_@Base 0.4c
 _ZStneIcRcPcEbRKSt15_Deque_iteratorIT_T0_T1_ES8_@Base 0.4c
 _ZStneIcSt11char_traitsIcESaIcEEbRKSbIT_T0_T1_EPKS3_@Base 0.4c
 _ZStoRRSt13_Ios_FmtflagsS_@Base 0.4c
 _ZStorSt13_Ios_FmtflagsS_@Base 0.4c
 _ZStorSt13_Ios_OpenmodeS_@Base 0.4c
 _ZStplIcSt11char_traitsIcESaIcEESbIT_T0_T1_ERKS6_PKS3_@Base 0.4c
 _ZTCN5boost2io22basic_oaltstringstreamIcSt11char_traitsIcESaIcEEE0_So@Base 0.4c
 _ZTIN3hpp5debug13ConsoleOutputE@Base 0.4c
 _ZTIN3hpp5debug13JournalOutputE@Base 0.4c
 _ZTIN3hpp5debug6OutputE@Base 0.4c
 _ZTIN3hpp9ExceptionE@Base 0.4c
 _ZTIN5boost10filesystem22basic_filesystem_errorINS0_10basic_pathISsNS0_11path_traitsEEEEE@Base 0.4c
 _ZTIN5boost16base_from_memberINS_10shared_ptrINS_2io18basic_altstringbufIcSt11char_traitsIcESaIcEEEEELi0EEE@Base 0.4c
 _ZTIN5boost16exception_detail10clone_baseE@Base 0.4c
 _ZTIN5boost16exception_detail10clone_implINS0_19error_info_injectorINS_10filesystem22basic_filesystem_errorINS3_10basic_pathISsNS3_11path_traitsEEEEEEEEE@Base 0.4c
 _ZTIN5boost16exception_detail10clone_implINS0_19error_info_injectorINS_17bad_function_callEEEEE@Base 0.4c
 _ZTIN5boost16exception_detail10clone_implINS0_19error_info_injectorINS_2io12too_few_argsEEEEE@Base 0.4c
 _ZTIN5boost16exception_detail10clone_implINS0_19error_info_injectorINS_2io13too_many_argsEEEEE@Base 0.4c
 _ZTIN5boost16exception_detail10clone_implINS0_19error_info_injectorINS_2io17bad_format_stringEEEEE@Base 0.4c
 _ZTIN5boost16exception_detail10clone_implINS0_19error_info_injectorINS_9gregorian11bad_weekdayEEEEE@Base 0.4c
 _ZTIN5boost16exception_detail10clone_implINS0_19error_info_injectorINS_9gregorian15bad_day_of_yearEEEEE@Base 0.4c
 _ZTIN5boost16exception_detail10clone_implINS0_19error_info_injectorINS_9gregorian16bad_day_of_monthEEEEE@Base 0.4c
 _ZTIN5boost16exception_detail10clone_implINS0_19error_info_injectorINS_9gregorian8bad_yearEEEEE@Base 0.4c
 _ZTIN5boost16exception_detail10clone_implINS0_19error_info_injectorINS_9gregorian9bad_monthEEEEE@Base 0.4c
 _ZTIN5boost16exception_detail10clone_implINS0_19error_info_injectorISt12out_of_rangeEEEE@Base 0.4c
 _ZTIN5boost16exception_detail10clone_implINS0_19error_info_injectorISt13runtime_errorEEEE@Base 0.4c
 _ZTIN5boost16exception_detail19error_info_injectorINS_10filesystem22basic_filesystem_errorINS2_10basic_pathISsNS2_11path_traitsEEEEEEE@Base 0.4c
 _ZTIN5boost16exception_detail19error_info_injectorINS_17bad_function_callEEE@Base 0.4c
 _ZTIN5boost16exception_detail19error_info_injectorINS_2io12too_few_argsEEE@Base 0.4c
 _ZTIN5boost16exception_detail19error_info_injectorINS_2io13too_many_argsEEE@Base 0.4c
 _ZTIN5boost16exception_detail19error_info_injectorINS_2io17bad_format_stringEEE@Base 0.4c
 _ZTIN5boost16exception_detail19error_info_injectorINS_9gregorian11bad_weekdayEEE@Base 0.4c
 _ZTIN5boost16exception_detail19error_info_injectorINS_9gregorian15bad_day_of_yearEEE@Base 0.4c
 _ZTIN5boost16exception_detail19error_info_injectorINS_9gregorian16bad_day_of_monthEEE@Base 0.4c
 _ZTIN5boost16exception_detail19error_info_injectorINS_9gregorian8bad_yearEEE@Base 0.4c
 _ZTIN5boost16exception_detail19error_info_injectorINS_9gregorian9bad_monthEEE@Base 0.4c
 _ZTIN5boost16exception_detail19error_info_injectorISt12out_of_rangeEE@Base 0.4c
 _ZTIN5boost16exception_detail19error_info_injectorISt13runtime_errorEE@Base 0.4c
 _ZTIN5boost17bad_function_callE@Base 0.4c
 _ZTIN5boost2io12format_errorE@Base 0.4c
 _ZTIN5boost2io12too_few_argsE@Base 0.4c
 _ZTIN5boost2io13too_many_argsE@Base 0.4c
 _ZTIN5boost2io17bad_format_stringE@Base 0.4c
 _ZTIN5boost2io18basic_altstringbufIcSt11char_traitsIcESaIcEEE@Base 0.4c
 _ZTIN5boost2io22basic_oaltstringstreamIcSt11char_traitsIcESaIcEE5No_OpE@Base 0.4c
 _ZTIN5boost2io22basic_oaltstringstreamIcSt11char_traitsIcESaIcEEE@Base 0.4c
 _ZTIN5boost6detail15sp_counted_baseE@Base 0.4c
 _ZTIN5boost6detail17sp_counted_impl_pINS_10filesystem22basic_filesystem_errorINS2_10basic_pathISsNS2_11path_traitsEEEE5m_impEEE@Base 0.4c
 _ZTIN5boost6detail18sp_counted_impl_pdIPNS_2io18basic_altstringbufIcSt11char_traitsIcESaIcEEENS2_22basic_oaltstringstreamIcS5_S6_E5No_OpEEE@Base 0.4c
 _ZTIN5boost6system12system_errorE@Base 0.4c
 _ZTIN5boost9algorithm6detail13token_finderFINS1_10is_any_ofFIcEEEE@Base 0.4c
 _ZTIN5boost9date_time10date_facetINS_9gregorian4dateEcSt19ostreambuf_iteratorIcSt11char_traitsIcEEEE@Base 0.4c
 _ZTIN5boost9date_time10time_facetINS_10posix_time5ptimeEcSt19ostreambuf_iteratorIcSt11char_traitsIcEEEE@Base 0.4c
 _ZTIN5boost9exceptionE@Base 0.4c
 _ZTIN5boost9gregorian11bad_weekdayE@Base 0.4c
 _ZTIN5boost9gregorian15bad_day_of_yearE@Base 0.4c
 _ZTIN5boost9gregorian16bad_day_of_monthE@Base 0.4c
 _ZTIN5boost9gregorian8bad_yearE@Base 0.4c
 _ZTIN5boost9gregorian9bad_monthE@Base 0.4c
 _ZTISt12out_of_range@Base 0.4c
 _ZTSN3hpp5debug13ConsoleOutputE@Base 0.4c
 _ZTSN3hpp5debug13JournalOutputE@Base 0.4c
 _ZTSN3hpp5debug6OutputE@Base 0.4c
 _ZTSN3hpp9ExceptionE@Base 0.4c
 _ZTSN5boost10filesystem22basic_filesystem_errorINS0_10basic_pathISsNS0_11path_traitsEEEEE@Base 0.4c
 _ZTSN5boost16base_from_memberINS_10shared_ptrINS_2io18basic_altstringbufIcSt11char_traitsIcESaIcEEEEELi0EEE@Base 0.4c
 _ZTSN5boost16exception_detail10clone_baseE@Base 0.4c
 _ZTSN5boost16exception_detail10clone_implINS0_19error_info_injectorINS_10filesystem22basic_filesystem_errorINS3_10basic_pathISsNS3_11path_traitsEEEEEEEEE@Base 0.4c
 _ZTSN5boost16exception_detail10clone_implINS0_19error_info_injectorINS_17bad_function_callEEEEE@Base 0.4c
 _ZTSN5boost16exception_detail10clone_implINS0_19error_info_injectorINS_2io12too_few_argsEEEEE@Base 0.4c
 _ZTSN5boost16exception_detail10clone_implINS0_19error_info_injectorINS_2io13too_many_argsEEEEE@Base 0.4c
 _ZTSN5boost16exception_detail10clone_implINS0_19error_info_injectorINS_2io17bad_format_stringEEEEE@Base 0.4c
 _ZTSN5boost16exception_detail10clone_implINS0_19error_info_injectorINS_9gregorian11bad_weekdayEEEEE@Base 0.4c
 _ZTSN5boost16exception_detail10clone_implINS0_19error_info_injectorINS_9gregorian15bad_day_of_yearEEEEE@Base 0.4c
 _ZTSN5boost16exception_detail10clone_implINS0_19error_info_injectorINS_9gregorian16bad_day_of_monthEEEEE@Base 0.4c
 _ZTSN5boost16exception_detail10clone_implINS0_19error_info_injectorINS_9gregorian8bad_yearEEEEE@Base 0.4c
 _ZTSN5boost16exception_detail10clone_implINS0_19error_info_injectorINS_9gregorian9bad_monthEEEEE@Base 0.4c
 _ZTSN5boost16exception_detail10clone_implINS0_19error_info_injectorISt12out_of_rangeEEEE@Base 0.4c
 _ZTSN5boost16exception_detail10clone_implINS0_19error_info_injectorISt13runtime_errorEEEE@Base 0.4c
 _ZTSN5boost16exception_detail19error_info_injectorINS_10filesystem22basic_filesystem_errorINS2_10basic_pathISsNS2_11path_traitsEEEEEEE@Base 0.4c
 _ZTSN5boost16exception_detail19error_info_injectorINS_17bad_function_callEEE@Base 0.4c
 _ZTSN5boost16exception_detail19error_info_injectorINS_2io12too_few_argsEEE@Base 0.4c
 _ZTSN5boost16exception_detail19error_info_injectorINS_2io13too_many_argsEEE@Base 0.4c
 _ZTSN5boost16exception_detail19error_info_injectorINS_2io17bad_format_stringEEE@Base 0.4c
 _ZTSN5boost16exception_detail19error_info_injectorINS_9gregorian11bad_weekdayEEE@Base 0.4c
 _ZTSN5boost16exception_detail19error_info_injectorINS_9gregorian15bad_day_of_yearEEE@Base 0.4c
 _ZTSN5boost16exception_detail19error_info_injectorINS_9gregorian16bad_day_of_monthEEE@Base 0.4c
 _ZTSN5boost16exception_detail19error_info_injectorINS_9gregorian8bad_yearEEE@Base 0.4c
 _ZTSN5boost16exception_detail19error_info_injectorINS_9gregorian9bad_monthEEE@Base 0.4c
 _ZTSN5boost16exception_detail19error_info_injectorISt12out_of_rangeEE@Base 0.4c
 _ZTSN5boost16exception_detail19error_info_injectorISt13runtime_errorEE@Base 0.4c
 _ZTSN5boost17bad_function_callE@Base 0.4c
 _ZTSN5boost2io12format_errorE@Base 0.4c
 _ZTSN5boost2io12too_few_argsE@Base 0.4c
 _ZTSN5boost2io13too_many_argsE@Base 0.4c
 _ZTSN5boost2io17bad_format_stringE@Base 0.4c
 _ZTSN5boost2io18basic_altstringbufIcSt11char_traitsIcESaIcEEE@Base 0.4c
 _ZTSN5boost2io22basic_oaltstringstreamIcSt11char_traitsIcESaIcEE5No_OpE@Base 0.4c
 _ZTSN5boost2io22basic_oaltstringstreamIcSt11char_traitsIcESaIcEEE@Base 0.4c
 _ZTSN5boost6detail15sp_counted_baseE@Base 0.4c
 _ZTSN5boost6detail17sp_counted_impl_pINS_10filesystem22basic_filesystem_errorINS2_10basic_pathISsNS2_11path_traitsEEEE5m_impEEE@Base 0.4c
 _ZTSN5boost6detail18sp_counted_impl_pdIPNS_2io18basic_altstringbufIcSt11char_traitsIcESaIcEEENS2_22basic_oaltstringstreamIcS5_S6_E5No_OpEEE@Base 0.4c
 _ZTSN5boost6system12system_errorE@Base 0.4c
 _ZTSN5boost9algorithm6detail13token_finderFINS1_10is_any_ofFIcEEEE@Base 0.4c
 _ZTSN5boost9date_time10date_facetINS_9gregorian4dateEcSt19ostreambuf_iteratorIcSt11char_traitsIcEEEE@Base 0.4c
 _ZTSN5boost9date_time10time_facetINS_10posix_time5ptimeEcSt19ostreambuf_iteratorIcSt11char_traitsIcEEEE@Base 0.4c
 _ZTSN5boost9exceptionE@Base 0.4c
 _ZTSN5boost9gregorian11bad_weekdayE@Base 0.4c
 _ZTSN5boost9gregorian15bad_day_of_yearE@Base 0.4c
 _ZTSN5boost9gregorian16bad_day_of_monthE@Base 0.4c
 _ZTSN5boost9gregorian8bad_yearE@Base 0.4c
 _ZTSN5boost9gregorian9bad_monthE@Base 0.4c
 _ZTSSt12out_of_range@Base 0.4c
 _ZTTN5boost2io22basic_oaltstringstreamIcSt11char_traitsIcESaIcEEE@Base 0.4c
 _ZTVN3hpp5debug13ConsoleOutputE@Base 0.4c
 _ZTVN3hpp5debug13JournalOutputE@Base 0.4c
 _ZTVN3hpp5debug6OutputE@Base 0.4c
 _ZTVN3hpp9ExceptionE@Base 0.4c
 _ZTVN5boost10filesystem22basic_filesystem_errorINS0_10basic_pathISsNS0_11path_traitsEEEEE@Base 0.4c
 _ZTVN5boost16exception_detail10clone_baseE@Base 0.4c
 _ZTVN5boost16exception_detail10clone_implINS0_19error_info_injectorINS_10filesystem22basic_filesystem_errorINS3_10basic_pathISsNS3_11path_traitsEEEEEEEEE@Base 0.4c
 _ZTVN5boost16exception_detail10clone_implINS0_19error_info_injectorINS_17bad_function_callEEEEE@Base 0.4c
 _ZTVN5boost16exception_detail10clone_implINS0_19error_info_injectorINS_2io12too_few_argsEEEEE@Base 0.4c
 _ZTVN5boost16exception_detail10clone_implINS0_19error_info_injectorINS_2io13too_many_argsEEEEE@Base 0.4c
 _ZTVN5boost16exception_detail10clone_implINS0_19error_info_injectorINS_2io17bad_format_stringEEEEE@Base 0.4c
 _ZTVN5boost16exception_detail10clone_implINS0_19error_info_injectorINS_9gregorian11bad_weekdayEEEEE@Base 0.4c
 _ZTVN5boost16exception_detail10clone_implINS0_19error_info_injectorINS_9gregorian15bad_day_of_yearEEEEE@Base 0.4c
 _ZTVN5boost16exception_detail10clone_implINS0_19error_info_injectorINS_9gregorian16bad_day_of_monthEEEEE@Base 0.4c
 _ZTVN5boost16exception_detail10clone_implINS0_19error_info_injectorINS_9gregorian8bad_yearEEEEE@Base 0.4c
 _ZTVN5boost16exception_detail10clone_implINS0_19error_info_injectorINS_9gregorian9bad_monthEEEEE@Base 0.4c
 _ZTVN5boost16exception_detail10clone_implINS0_19error_info_injectorISt12out_of_rangeEEEE@Base 0.4c
 _ZTVN5boost16exception_detail10clone_implINS0_19error_info_injectorISt13runtime_errorEEEE@Base 0.4c
 _ZTVN5boost16exception_detail19error_info_injectorINS_10filesystem22basic_filesystem_errorINS2_10basic_pathISsNS2_11path_traitsEEEEEEE@Base 0.4c
 _ZTVN5boost16exception_detail19error_info_injectorINS_17bad_function_callEEE@Base 0.4c
 _ZTVN5boost16exception_detail19error_info_injectorINS_2io12too_few_argsEEE@Base 0.4c
 _ZTVN5boost16exception_detail19error_info_injectorINS_2io13too_many_argsEEE@Base 0.4c
 _ZTVN5boost16exception_detail19error_info_injectorINS_2io17bad_format_stringEEE@Base 0.4c
 _ZTVN5boost16exception_detail19error_info_injectorINS_9gregorian11bad_weekdayEEE@Base 0.4c
 _ZTVN5boost16exception_detail19error_info_injectorINS_9gregorian15bad_day_of_yearEEE@Base 0.4c
 _ZTVN5boost16exception_detail19error_info_injectorINS_9gregorian16bad_day_of_monthEEE@Base 0.4c
 _ZTVN5boost16exception_detail19error_info_injectorINS_9gregorian8bad_yearEEE@Base 0.4c
 _ZTVN5boost16exception_detail19error_info_injectorINS_9gregorian9bad_monthEEE@Base 0.4c
 _ZTVN5boost16exception_detail19error_info_injectorISt12out_of_rangeEE@Base 0.4c
 _ZTVN5boost16exception_detail19error_info_injectorISt13runtime_errorEE@Base 0.4c
 _ZTVN5boost17bad_function_callE@Base 0.4c
 _ZTVN5boost2io12format_errorE@Base 0.4c
 _ZTVN5boost2io12too_few_argsE@Base 0.4c
 _ZTVN5boost2io13too_many_argsE@Base 0.4c
 _ZTVN5boost2io17bad_format_stringE@Base 0.4c
 _ZTVN5boost2io18basic_altstringbufIcSt11char_traitsIcESaIcEEE@Base 0.4c
 _ZTVN5boost2io22basic_oaltstringstreamIcSt11char_traitsIcESaIcEEE@Base 0.4c
 _ZTVN5boost6detail15sp_counted_baseE@Base 0.4c
 _ZTVN5boost6detail17sp_counted_impl_pINS_10filesystem22basic_filesystem_errorINS2_10basic_pathISsNS2_11path_traitsEEEE5m_impEEE@Base 0.4c
 _ZTVN5boost6detail18sp_counted_impl_pdIPNS_2io18basic_altstringbufIcSt11char_traitsIcESaIcEEENS2_22basic_oaltstringstreamIcS5_S6_E5No_OpEEE@Base 0.4c
 _ZTVN5boost6system12system_errorE@Base 0.4c
 _ZTVN5boost9date_time10date_facetINS_9gregorian4dateEcSt19ostreambuf_iteratorIcSt11char_traitsIcEEEE@Base 0.4c
 _ZTVN5boost9date_time10time_facetINS_10posix_time5ptimeEcSt19ostreambuf_iteratorIcSt11char_traitsIcEEEE@Base 0.4c
 _ZTVN5boost9exceptionE@Base 0.4c
 _ZTVN5boost9gregorian11bad_weekdayE@Base 0.4c
 _ZTVN5boost9gregorian15bad_day_of_yearE@Base 0.4c
 _ZTVN5boost9gregorian16bad_day_of_monthE@Base 0.4c
 _ZTVN5boost9gregorian8bad_yearE@Base 0.4c
 _ZTVN5boost9gregorian9bad_monthE@Base 0.4c
 _ZTVSt12out_of_range@Base 0.4c
 _ZThn12_N5boost16exception_detail10clone_implINS0_19error_info_injectorINS_2io12too_few_argsEEEED0Ev@Base 0.4c
 _ZThn12_N5boost16exception_detail10clone_implINS0_19error_info_injectorINS_2io12too_few_argsEEEED1Ev@Base 0.4c
 _ZThn12_N5boost16exception_detail10clone_implINS0_19error_info_injectorINS_2io13too_many_argsEEEED0Ev@Base 0.4c
 _ZThn12_N5boost16exception_detail10clone_implINS0_19error_info_injectorINS_2io13too_many_argsEEEED1Ev@Base 0.4c
 _ZThn12_N5boost16exception_detail10clone_implINS0_19error_info_injectorINS_2io17bad_format_stringEEEED0Ev@Base 0.4c
 _ZThn12_N5boost16exception_detail10clone_implINS0_19error_info_injectorINS_2io17bad_format_stringEEEED1Ev@Base 0.4c
 _ZThn12_N5boost16exception_detail19error_info_injectorINS_2io12too_few_argsEED0Ev@Base 0.4c
 _ZThn12_N5boost16exception_detail19error_info_injectorINS_2io12too_few_argsEED1Ev@Base 0.4c
 _ZThn12_N5boost16exception_detail19error_info_injectorINS_2io13too_many_argsEED0Ev@Base 0.4c
 _ZThn12_N5boost16exception_detail19error_info_injectorINS_2io13too_many_argsEED1Ev@Base 0.4c
 _ZThn12_N5boost16exception_detail19error_info_injectorINS_2io17bad_format_stringEED0Ev@Base 0.4c
 _ZThn12_N5boost16exception_detail19error_info_injectorINS_2io17bad_format_stringEED1Ev@Base 0.4c
 _ZThn28_N5boost16exception_detail10clone_implINS0_19error_info_injectorINS_10filesystem22basic_filesystem_errorINS3_10basic_pathISsNS3_11path_traitsEEEEEEEED0Ev@Base 0.4c
 _ZThn28_N5boost16exception_detail10clone_implINS0_19error_info_injectorINS_10filesystem22basic_filesystem_errorINS3_10basic_pathISsNS3_11path_traitsEEEEEEEED1Ev@Base 0.4c
 _ZThn28_N5boost16exception_detail10clone_implINS0_19error_info_injectorINS_17bad_function_callEEEED0Ev@Base 0.4c
 _ZThn28_N5boost16exception_detail10clone_implINS0_19error_info_injectorINS_17bad_function_callEEEED1Ev@Base 0.4c
 _ZThn28_N5boost16exception_detail10clone_implINS0_19error_info_injectorINS_9gregorian11bad_weekdayEEEED0Ev@Base 0.4c
 _ZThn28_N5boost16exception_detail10clone_implINS0_19error_info_injectorINS_9gregorian11bad_weekdayEEEED1Ev@Base 0.4c
 _ZThn28_N5boost16exception_detail10clone_implINS0_19error_info_injectorINS_9gregorian15bad_day_of_yearEEEED0Ev@Base 0.4c
 _ZThn28_N5boost16exception_detail10clone_implINS0_19error_info_injectorINS_9gregorian15bad_day_of_yearEEEED1Ev@Base 0.4c
 _ZThn28_N5boost16exception_detail10clone_implINS0_19error_info_injectorINS_9gregorian16bad_day_of_monthEEEED0Ev@Base 0.4c
 _ZThn28_N5boost16exception_detail10clone_implINS0_19error_info_injectorINS_9gregorian16bad_day_of_monthEEEED1Ev@Base 0.4c
 _ZThn28_N5boost16exception_detail10clone_implINS0_19error_info_injectorINS_9gregorian8bad_yearEEEED0Ev@Base 0.4c
 _ZThn28_N5boost16exception_detail10clone_implINS0_19error_info_injectorINS_9gregorian8bad_yearEEEED1Ev@Base 0.4c
 _ZThn28_N5boost16exception_detail10clone_implINS0_19error_info_injectorINS_9gregorian9bad_monthEEEED0Ev@Base 0.4c
 _ZThn28_N5boost16exception_detail10clone_implINS0_19error_info_injectorINS_9gregorian9bad_monthEEEED1Ev@Base 0.4c
 _ZThn28_N5boost16exception_detail10clone_implINS0_19error_info_injectorISt12out_of_rangeEEED0Ev@Base 0.4c
 _ZThn28_N5boost16exception_detail10clone_implINS0_19error_info_injectorISt12out_of_rangeEEED1Ev@Base 0.4c
 _ZThn28_N5boost16exception_detail10clone_implINS0_19error_info_injectorISt13runtime_errorEEED0Ev@Base 0.4c
 _ZThn28_N5boost16exception_detail10clone_implINS0_19error_info_injectorISt13runtime_errorEEED1Ev@Base 0.4c
 _ZThn28_N5boost16exception_detail19error_info_injectorINS_10filesystem22basic_filesystem_errorINS2_10basic_pathISsNS2_11path_traitsEEEEEED0Ev@Base 0.4c
 _ZThn28_N5boost16exception_detail19error_info_injectorINS_10filesystem22basic_filesystem_errorINS2_10basic_pathISsNS2_11path_traitsEEEEEED1Ev@Base 0.4c
 _ZThn28_NK5boost16exception_detail10clone_implINS0_19error_info_injectorINS_17bad_function_callEEEE5cloneEv@Base 0.4c
 _ZThn28_NK5boost16exception_detail10clone_implINS0_19error_info_injectorINS_17bad_function_callEEEE7rethrowEv@Base 0.4c
 _ZThn28_NK5boost16exception_detail10clone_implINS0_19error_info_injectorINS_9gregorian11bad_weekdayEEEE5cloneEv@Base 0.4c
 _ZThn28_NK5boost16exception_detail10clone_implINS0_19error_info_injectorINS_9gregorian11bad_weekdayEEEE7rethrowEv@Base 0.4c
 _ZThn28_NK5boost16exception_detail10clone_implINS0_19error_info_injectorINS_9gregorian15bad_day_of_yearEEEE5cloneEv@Base 0.4c
 _ZThn28_NK5boost16exception_detail10clone_implINS0_19error_info_injectorINS_9gregorian15bad_day_of_yearEEEE7rethrowEv@Base 0.4c
 _ZThn28_NK5boost16exception_detail10clone_implINS0_19error_info_injectorINS_9gregorian16bad_day_of_monthEEEE5cloneEv@Base 0.4c
 _ZThn28_NK5boost16exception_detail10clone_implINS0_19error_info_injectorINS_9gregorian16bad_day_of_monthEEEE7rethrowEv@Base 0.4c
 _ZThn28_NK5boost16exception_detail10clone_implINS0_19error_info_injectorINS_9gregorian8bad_yearEEEE5cloneEv@Base 0.4c
 _ZThn28_NK5boost16exception_detail10clone_implINS0_19error_info_injectorINS_9gregorian8bad_yearEEEE7rethrowEv@Base 0.4c
 _ZThn28_NK5boost16exception_detail10clone_implINS0_19error_info_injectorINS_9gregorian9bad_monthEEEE5cloneEv@Base 0.4c
 _ZThn28_NK5boost16exception_detail10clone_implINS0_19error_info_injectorINS_9gregorian9bad_monthEEEE7rethrowEv@Base 0.4c
 _ZThn28_NK5boost16exception_detail10clone_implINS0_19error_info_injectorISt12out_of_rangeEEE5cloneEv@Base 0.4c
 _ZThn28_NK5boost16exception_detail10clone_implINS0_19error_info_injectorISt12out_of_rangeEEE7rethrowEv@Base 0.4c
 _ZThn28_NK5boost16exception_detail10clone_implINS0_19error_info_injectorISt13runtime_errorEEE5cloneEv@Base 0.4c
 _ZThn28_NK5boost16exception_detail10clone_implINS0_19error_info_injectorISt13runtime_errorEEE7rethrowEv@Base 0.4c
 _ZThn32_N5boost16exception_detail10clone_implINS0_19error_info_injectorINS_2io12too_few_argsEEEED0Ev@Base 0.4c
 _ZThn32_N5boost16exception_detail10clone_implINS0_19error_info_injectorINS_2io12too_few_argsEEEED1Ev@Base 0.4c
 _ZThn32_N5boost16exception_detail10clone_implINS0_19error_info_injectorINS_2io13too_many_argsEEEED0Ev@Base 0.4c
 _ZThn32_N5boost16exception_detail10clone_implINS0_19error_info_injectorINS_2io13too_many_argsEEEED1Ev@Base 0.4c
 _ZThn32_N5boost16exception_detail10clone_implINS0_19error_info_injectorINS_2io17bad_format_stringEEEED0Ev@Base 0.4c
 _ZThn32_N5boost16exception_detail10clone_implINS0_19error_info_injectorINS_2io17bad_format_stringEEEED1Ev@Base 0.4c
 _ZThn32_NK5boost16exception_detail10clone_implINS0_19error_info_injectorINS_2io12too_few_argsEEEE5cloneEv@Base 0.4c
 _ZThn32_NK5boost16exception_detail10clone_implINS0_19error_info_injectorINS_2io12too_few_argsEEEE7rethrowEv@Base 0.4c
 _ZThn32_NK5boost16exception_detail10clone_implINS0_19error_info_injectorINS_2io13too_many_argsEEEE5cloneEv@Base 0.4c
 _ZThn32_NK5boost16exception_detail10clone_implINS0_19error_info_injectorINS_2io13too_many_argsEEEE7rethrowEv@Base 0.4c
 _ZThn32_NK5boost16exception_detail10clone_implINS0_19error_info_injectorINS_2io17bad_format_stringEEEE5cloneEv@Base 0.4c
 _ZThn32_NK5boost16exception_detail10clone_implINS0_19error_info_injectorINS_2io17bad_format_stringEEEE7rethrowEv@Base 0.4c
 _ZThn48_N5boost16exception_detail10clone_implINS0_19error_info_injectorINS_10filesystem22basic_filesystem_errorINS3_10basic_pathISsNS3_11path_traitsEEEEEEEED0Ev@Base 0.4c
 _ZThn48_N5boost16exception_detail10clone_implINS0_19error_info_injectorINS_10filesystem22basic_filesystem_errorINS3_10basic_pathISsNS3_11path_traitsEEEEEEEED1Ev@Base 0.4c
 _ZThn48_NK5boost16exception_detail10clone_implINS0_19error_info_injectorINS_10filesystem22basic_filesystem_errorINS3_10basic_pathISsNS3_11path_traitsEEEEEEEE5cloneEv@Base 0.4c
 _ZThn48_NK5boost16exception_detail10clone_implINS0_19error_info_injectorINS_10filesystem22basic_filesystem_errorINS3_10basic_pathISsNS3_11path_traitsEEEEEEEE7rethrowEv@Base 0.4c
 _ZThn8_N5boost16exception_detail10clone_implINS0_19error_info_injectorINS_17bad_function_callEEEED0Ev@Base 0.4c
 _ZThn8_N5boost16exception_detail10clone_implINS0_19error_info_injectorINS_17bad_function_callEEEED1Ev@Base 0.4c
 _ZThn8_N5boost16exception_detail10clone_implINS0_19error_info_injectorINS_9gregorian11bad_weekdayEEEED0Ev@Base 0.4c
 _ZThn8_N5boost16exception_detail10clone_implINS0_19error_info_injectorINS_9gregorian11bad_weekdayEEEED1Ev@Base 0.4c
 _ZThn8_N5boost16exception_detail10clone_implINS0_19error_info_injectorINS_9gregorian15bad_day_of_yearEEEED0Ev@Base 0.4c
 _ZThn8_N5boost16exception_detail10clone_implINS0_19error_info_injectorINS_9gregorian15bad_day_of_yearEEEED1Ev@Base 0.4c
 _ZThn8_N5boost16exception_detail10clone_implINS0_19error_info_injectorINS_9gregorian16bad_day_of_monthEEEED0Ev@Base 0.4c
 _ZThn8_N5boost16exception_detail10clone_implINS0_19error_info_injectorINS_9gregorian16bad_day_of_monthEEEED1Ev@Base 0.4c
 _ZThn8_N5boost16exception_detail10clone_implINS0_19error_info_injectorINS_9gregorian8bad_yearEEEED0Ev@Base 0.4c
 _ZThn8_N5boost16exception_detail10clone_implINS0_19error_info_injectorINS_9gregorian8bad_yearEEEED1Ev@Base 0.4c
 _ZThn8_N5boost16exception_detail10clone_implINS0_19error_info_injectorINS_9gregorian9bad_monthEEEED0Ev@Base 0.4c
 _ZThn8_N5boost16exception_detail10clone_implINS0_19error_info_injectorINS_9gregorian9bad_monthEEEED1Ev@Base 0.4c
 _ZThn8_N5boost16exception_detail10clone_implINS0_19error_info_injectorISt12out_of_rangeEEED0Ev@Base 0.4c
 _ZThn8_N5boost16exception_detail10clone_implINS0_19error_info_injectorISt12out_of_rangeEEED1Ev@Base 0.4c
 _ZThn8_N5boost16exception_detail10clone_implINS0_19error_info_injectorISt13runtime_errorEEED0Ev@Base 0.4c
 _ZThn8_N5boost16exception_detail10clone_implINS0_19error_info_injectorISt13runtime_errorEEED1Ev@Base 0.4c
 _ZThn8_N5boost16exception_detail19error_info_injectorINS_17bad_function_callEED0Ev@Base 0.4c
 _ZThn8_N5boost16exception_detail19error_info_injectorINS_17bad_function_callEED1Ev@Base 0.4c
 _ZThn8_N5boost16exception_detail19error_info_injectorINS_9gregorian11bad_weekdayEED0Ev@Base 0.4c
 _ZThn8_N5boost16exception_detail19error_info_injectorINS_9gregorian11bad_weekdayEED1Ev@Base 0.4c
 _ZThn8_N5boost16exception_detail19error_info_injectorINS_9gregorian15bad_day_of_yearEED0Ev@Base 0.4c
 _ZThn8_N5boost16exception_detail19error_info_injectorINS_9gregorian15bad_day_of_yearEED1Ev@Base 0.4c
 _ZThn8_N5boost16exception_detail19error_info_injectorINS_9gregorian16bad_day_of_monthEED0Ev@Base 0.4c
 _ZThn8_N5boost16exception_detail19error_info_injectorINS_9gregorian16bad_day_of_monthEED1Ev@Base 0.4c
 _ZThn8_N5boost16exception_detail19error_info_injectorINS_9gregorian8bad_yearEED0Ev@Base 0.4c
 _ZThn8_N5boost16exception_detail19error_info_injectorINS_9gregorian8bad_yearEED1Ev@Base 0.4c
 _ZThn8_N5boost16exception_detail19error_info_injectorINS_9gregorian9bad_monthEED0Ev@Base 0.4c
 _ZThn8_N5boost16exception_detail19error_info_injectorINS_9gregorian9bad_monthEED1Ev@Base 0.4c
 _ZThn8_N5boost16exception_detail19error_info_injectorISt12out_of_rangeED0Ev@Base 0.4c
 _ZThn8_N5boost16exception_detail19error_info_injectorISt12out_of_rangeED1Ev@Base 0.4c
 _ZThn8_N5boost16exception_detail19error_info_injectorISt13runtime_errorED0Ev@Base 0.4c
 _ZThn8_N5boost16exception_detail19error_info_injectorISt13runtime_errorED1Ev@Base 0.4c
 _ZTv0_n12_N5boost2io22basic_oaltstringstreamIcSt11char_traitsIcESaIcEED0Ev@Base 0.4c
 _ZTv0_n12_N5boost2io22basic_oaltstringstreamIcSt11char_traitsIcESaIcEED1Ev@Base 0.4c
 _ZZN3hpp6indentERSoE12indent_index@Base 0.4c
 _ZZN5boost9function2INS_14iterator_rangeIPKcEES3_S3_E9assign_toINS_9algorithm6detail13token_finderFINS8_10is_any_ofFIcEEEEEEvT_E13stored_vtable@Base 0.4c
 _ZZNK5boost13assign_detail9converterINS0_12generic_listIPN3hpp5debug6OutputEEESt15_Deque_iteratorIS6_RS6_PS6_EE20convert_to_containerISt6vectorIS6_SaIS6_EEEET_vE13is_array_flag@Base 0.4c
 _ZZNK5boost13assign_detail9converterINS0_12generic_listIPN3hpp5debug6OutputEEESt15_Deque_iteratorIS6_RS6_PS6_EE20convert_to_containerISt6vectorIS6_SaIS6_EEEET_vE1c@Base 0.4c
 _ZdlPvS_@Base 0.4c
 _ZnwjPv@Base 0.4c
